
C:\Users\dgs\Documents\MCUXpressoIDE_11.0.0_2516\workspace\iot_trusted_ns\Debug\iot_trusted_ns.axf:     file format elf32-littlearm
C:\Users\dgs\Documents\MCUXpressoIDE_11.0.0_2516\workspace\iot_trusted_ns\Debug\iot_trusted_ns.axf
architecture: armv8-m.main, flags 0x00000112:
EXEC_P, HAS_SYMS, D_PAGED
start address 0x00010145

Program Header:
    LOAD off    0x00010000 vaddr 0x00010000 paddr 0x00010000 align 2**16
         filesz 0x0000429c memsz 0x0000429c flags r-x
    LOAD off    0x00020000 vaddr 0x20030000 paddr 0x0001429c align 2**16
         filesz 0x000001d0 memsz 0x0000026c flags rw-
    LOAD off    0x0002026c vaddr 0x2003026c paddr 0x0001446c align 2**16
         filesz 0x00000000 memsz 0x00001000 flags rw-
    LOAD off    0x0002126c vaddr 0x2003126c paddr 0x0001446c align 2**16
         filesz 0x00000000 memsz 0x00001000 flags rw-
private flags = 5000400: [Version5 EABI] [hard-float ABI]

Sections:
Idx Name          Size      VMA       LMA       File off  Algn
  0 .text         0000429c  00010000  00010000  00010000  2**3
                  CONTENTS, ALLOC, LOAD, READONLY, CODE
  1 .data         000001d0  20030000  0001429c  00020000  2**2
                  CONTENTS, ALLOC, LOAD, DATA
  2 .bss          0000009c  200301d0  0001446c  000201d0  2**2
                  ALLOC
  3 .uninit_RESERVED 00000000  20030000  20030000  000201d0  2**0
                  CONTENTS
  4 .noinit       00000000  2003026c  2003026c  000201d0  2**0
                  CONTENTS
  5 .heap         00001000  2003026c  0001446c  0002026c  2**2
                  ALLOC
  6 .heap2stackfill 00001000  2003126c  0001446c  0002126c  2**0
                  ALLOC
  7 .stack        00000000  2003f000  2003f000  000201d0  2**2
                  CONTENTS
  8 .debug_info   00005b36  00000000  00000000  000201d0  2**0
                  CONTENTS, READONLY, DEBUGGING
  9 .debug_abbrev 00000d16  00000000  00000000  00025d06  2**0
                  CONTENTS, READONLY, DEBUGGING
 10 .debug_aranges 000003c8  00000000  00000000  00026a1c  2**0
                  CONTENTS, READONLY, DEBUGGING
 11 .debug_ranges 00000378  00000000  00000000  00026de4  2**0
                  CONTENTS, READONLY, DEBUGGING
 12 .debug_macro  00017c4c  00000000  00000000  0002715c  2**0
                  CONTENTS, READONLY, DEBUGGING
 13 .debug_line   000026a7  00000000  00000000  0003eda8  2**0
                  CONTENTS, READONLY, DEBUGGING
 14 .debug_str    000cafc4  00000000  00000000  0004144f  2**0
                  CONTENTS, READONLY, DEBUGGING
 15 .comment      00000075  00000000  00000000  0010c413  2**0
                  CONTENTS, READONLY
 16 .ARM.attributes 00000038  00000000  00000000  0010c488  2**0
                  CONTENTS, READONLY
 17 .debug_frame  000019f0  00000000  00000000  0010c4c0  2**2
                  CONTENTS, READONLY, DEBUGGING
SYMBOL TABLE:
00010000 l    d  .text	00000000 .text
20030000 l    d  .data	00000000 .data
200301d0 l    d  .bss	00000000 .bss
20030000 l    d  .uninit_RESERVED	00000000 .uninit_RESERVED
2003026c l    d  .noinit	00000000 .noinit
2003026c l    d  .heap	00000000 .heap
2003126c l    d  .heap2stackfill	00000000 .heap2stackfill
2003f000 l    d  .stack	00000000 .stack
00000000 l    d  .debug_info	00000000 .debug_info
00000000 l    d  .debug_abbrev	00000000 .debug_abbrev
00000000 l    d  .debug_aranges	00000000 .debug_aranges
00000000 l    d  .debug_ranges	00000000 .debug_ranges
00000000 l    d  .debug_macro	00000000 .debug_macro
00000000 l    d  .debug_line	00000000 .debug_line
00000000 l    d  .debug_str	00000000 .debug_str
00000000 l    d  .comment	00000000 .comment
00000000 l    d  .ARM.attributes	00000000 .ARM.attributes
00000000 l    d  .debug_frame	00000000 .debug_frame
00000000 l    df *ABS*	00000000 startup_lpc55s69_cm33_core0.c
00000000 l    df *ABS*	00000000 dtoa.c
00013106 l     F .text	0000011c quorem
00000000 l    df *ABS*	00000000 fsl_assert.c
00000000 l    df *ABS*	00000000 app_nbiot.c
00000000 l    df *ABS*	00000000 main_ns.c
00000000 l    df *ABS*	00000000 fsl_flexcomm.c
200301d0 l     O .bss	00000024 s_flexcommIrqHandler
200301f4 l     O .bss	00000024 s_flexcommHandle
00013fcc l     O .text	0000001b __func__.9050
00013fe8 l     O .text	0000001b __func__.9054
00014004 l     O .text	0000001b __func__.9058
00014020 l     O .text	0000001b __func__.9062
0001403c l     O .text	0000001b __func__.9066
00014058 l     O .text	0000001b __func__.9070
00014074 l     O .text	0000001b __func__.9074
00014090 l     O .text	0000001b __func__.9078
000140ac l     O .text	0000001b __func__.9082
00000000 l    df *ABS*	00000000 _arm_addsubdf3.o
00000000 l    df *ABS*	00000000 _arm_muldivdf3.o
00000000 l    df *ABS*	00000000 malloc.c
00000000 l    df *ABS*	00000000 nano-mallocr.c
00000000 l    df *ABS*	00000000 nano-mallocr.c
00000000 l    df *ABS*	00000000 nano-vfprintf_float.c
00000000 l    df *ABS*	00000000 nano-vfprintf_i.c
00000000 l    df *ABS*	00000000 printf.c
00000000 l    df *ABS*	00000000 sbrkr.c
00000000 l    df *ABS*	00000000 writer.c
00000000 l    df *ABS*	00000000 closer.c
00000000 l    df *ABS*	00000000 findfp.c
0001207c l     F .text	00000048 std
00000000 l    df *ABS*	00000000 localeconv.c
00000000 l    df *ABS*	00000000 lseekr.c
00000000 l    df *ABS*	00000000 mlock.c
00000000 l    df *ABS*	00000000 mprec.c
0001412c l     O .text	0000000c p05.7454
00000000 l    df *ABS*	00000000 nano-vfprintf.c
000137c2 l     F .text	0000002e __sfputc_r
00000000 l    df *ABS*	00000000 readr.c
00000000 l    df *ABS*	00000000 wbuf.c
00000000 l    df *ABS*	00000000 wsetup.c
00000000 l    df *ABS*	00000000 fflush.c
00000000 l    df *ABS*	00000000 makebuf.c
00000000 l    df *ABS*	00000000 fstatr.c
00000000 l    df *ABS*	00000000 isattyr.c
00000000 l    df *ABS*	00000000 _cr_sbrk.c
00000000 l    df *ABS*	00000000 syscalls.c
0001389a l     F .text	0000001c error
00012950 l     F .text	000000ac initialise_monitor_handles
000129fc l     F .text	00000024 findslot
000138b6 l     F .text	0000000a checkerror
20030224 l     O .bss	00000004 initialized.7041
20030228 l     O .bss	00000004 monitor_stderr
2003022c l     O .bss	00000004 monitor_stdin
20030230 l     O .bss	00000004 monitor_stdout
20030234 l     O .bss	00000028 openfiles
00000000 l    df *ABS*	00000000 _cr_check_heap.c
00000000 l    df *ABS*	00000000 _arm_cmpdf2.o
00000000 l    df *ABS*	00000000 _arm_unorddf2.o
00000000 l    df *ABS*	00000000 _arm_fixdfsi.o
00000000 l    df *ABS*	00000000 errno.c
00000000 l    df *ABS*	00000000 memcpy-stub.c
00000000 l    df *ABS*	00000000 memset.c
00000000 l    df *ABS*	00000000 nano-mallocr.c
00000000 l    df *ABS*	00000000 stdio.c
00000000 l    df *ABS*	00000000 lib_a-strlen.o
00000000 l    df *ABS*	00000000 fwalk.c
00000000 l    df *ABS*	00000000 lock.c
00000000 l    df *ABS*	00000000 memchr-stub.c
00000000 l    df *ABS*	00000000 mbtowc_r.c
00000000 l    df *ABS*	00000000 wctomb_r.c
00000000 l    df *ABS*	00000000 impure.c
20030004 l     O .data	00000060 impure_data
00000000 l    df *ABS*	00000000 ctype_.c
00000000 l    df *ABS*	00000000 locale.c
00000000 l    df *ABS*	00000000 reent.c
00013a98 l     F .text	00000010 __DbgConsole_Printf_NSE_veneer
00013aa8 l     F .text	00000010 __printdd_veneer
00013ab8 l     F .text	00000010 __upload_construct_veneer
00013ac8 l     F .text	00000010 __app_GPS_recv_s_veneer
10052000 g     F *ABS*	00000008 StringCompare_NSE
00010e40 g     F .text	00000044 FLEXCOMM1_DriverIRQHandler
00012e60 g     F .text	000000ba __cvt
00012b94 g     F .text	0000002c .hidden __aeabi_dcmpun
000128f4 g     F .text	00000020 _isatty_r
00012b58 g     F .text	00000012 .hidden __aeabi_dcmple
00012c7c  w    F .text	00000008 SCT0_IRQHandler
00012a94 g     F .text	0000007a .hidden __cmpdf2
00010000 g     O .text	00000130 __Vectors
00012204 g     F .text	00000024 _lseek_r
000101ce  w    F .text	00000002 DebugMon_Handler
00012a94 g     F .text	0000007a .hidden __eqdf2
000101d4  w    F .text	00000002 Reserved39_DriverIRQHandler
00010130 g       .text	00000000 __section_table_start
00011384 g     F .text	0000005a .hidden __floatdidf
00011fe8 g     F .text	00000030 printf
20030260 g     O .bss	00000001 __lock___atexit_recursive_mutex
00012d44  w    F .text	00000008 CTIMER4_IRQHandler
000101d4  w    F .text	00000002 DMA0_DriverIRQHandler
10052008 g     F *ABS*	00000008 DbgConsole_Printf_NSE
000101d4  w    F .text	00000002 Reserved42_DriverIRQHandler
000130ca g     F .text	00000024 __sseek
00012100 g     F .text	00000070 __sinit
00012550 g     F .text	000000a4 __swbuf_r
000101c2  w    F .text	00000002 HardFault_Handler
00012c1c  w    F .text	00000008 WDT_BOD_IRQHandler
00012cb4  w    F .text	00000008 FLEXCOMM5_IRQHandler
00013222 g     F .text	0000002c __sfmoreglue
00010000 g       *ABS*	00000000 __vectors_start__
00012234 g     F .text	0000000c __malloc_unlock
00001000 g       *ABS*	00000000 _HeapSize
00012d7c  w    F .text	00000008 Reserved60_IRQHandler
00012d4c  w    F .text	00000008 OS_EVENT_IRQHandler
00012cc4  w    F .text	00000008 FLEXCOMM7_IRQHandler
000101d2  w    F .text	00000002 SysTick_Handler
20030261 g     O .bss	00000001 __lock___arc4random_mutex
00012d6c  w    F .text	00000008 SDIO_IRQHandler
00012c5c  w    F .text	00000008 UTICK0_IRQHandler
000101d0  w    F .text	00000002 PendSV_Handler
000101c0  w    F .text	00000002 NMI_Handler
000132ac g     F .text	00000068 _Balloc
0001429c g       .text	00000000 __exidx_end
0001013c g       .text	00000000 __data_section_table_end
00010f0c g     F .text	00000044 FLEXCOMM4_DriverIRQHandler
00012a84 g     F .text	0000008a .hidden __gtdf2
00012c10 g     F .text	0000000c __errno
00012d74  w    F .text	00000008 Reserved59_IRQHandler
20030000 g       *ABS*	00000000 __base_Ram0
000101d4  w    F .text	00000002 SEC_VIO_DriverIRQHandler
000128d0 g     F .text	00000024 _fstat_r
2003025c g     O .bss	00000004 errno
0001429c g       .text	00000000 _etext
00012b20 g     F .text	00000010 .hidden __aeabi_cdcmple
00012d94  w    F .text	00000008 USB1_IRQHandler
00001000 g       *ABS*	00000000 _StackSize
000101ae g     F .text	00000012 bss_init
000101d4  w    F .text	00000002 PIN_INT3_DriverIRQHandler
000101d4  w    F .text	00000002 PIN_INT2_DriverIRQHandler
00012e1a g     F .text	0000001a memcpy
00012b10 g     F .text	00000020 .hidden __aeabi_cdrcmple
00012cec  w    F .text	00000008 Reserved42_IRQHandler
000120c4 g     F .text	0000000c _cleanup_r
0001130c g     F .text	00000022 .hidden __floatsidf
000101d4  w    F .text	00000002 Reserved56_DriverIRQHandler
00012dc4  w    F .text	00000008 SEC_VIO_IRQHandler
00012a8c g     F .text	00000082 .hidden __ltdf2
00010dfc g     F .text	00000044 FLEXCOMM0_DriverIRQHandler
2003026c g       .noinit	00000000 _noinit
000101d4  w    F .text	00000002 PIN_INT0_DriverIRQHandler
00082000 g       *ABS*	00000000 __top_PROGRAM_FLASH
00012ccc  w    F .text	00000008 ADC0_IRQHandler
00011804 g     F .text	00000010 malloc
00012cd4  w    F .text	00000008 Reserved39_IRQHandler
000101d4  w    F .text	00000002 CTIMER2_DriverIRQHandler
00013a4c  w    F .text	0000001c _fstat
00010d38 g     F .text	00000028 __assert_func
00013b00 g     O .text	000000c8 __mprec_tens
000101c8  w    F .text	00000002 UsageFault_Handler
20040000 g       *ABS*	00000000 __top_RAM
00012ca4  w    F .text	00000008 FLEXCOMM3_IRQHandler
00013a0a g     F .text	00000042 _swistat
00012d64  w    F .text	00000008 Reserved57_IRQHandler
000112ec g     F .text	0000001e .hidden __aeabi_ui2d
000121fc g     F .text	00000008 _localeconv_r
0001345c g     F .text	00000012 __i2b
00011068 g     F .text	00000000 .hidden __aeabi_drsub
00012018 g     F .text	00000020 _sbrk_r
00012d2c  w    F .text	00000008 PIN_INT6_IRQHandler
000101d4  w    F .text	00000002 IntDefaultHandler
000101d4  w    F .text	00000002 USB0_DriverIRQHandler
00012db4  w    F .text	00000008 SEC_GPIO_INT0_IRQ1_IRQHandler
0001252c g     F .text	00000024 _read_r
00012d1c  w    F .text	00000008 PIN_INT4_IRQHandler
2003126c g       .heap	00000000 _pvHeapLimit
00012b44 g     F .text	00000012 .hidden __aeabi_dcmplt
000101d4  w    F .text	00000002 CASER_DriverIRQHandler
00012cdc  w    F .text	00000008 ACMP_IRQHandler
00011330 g     F .text	00000042 .hidden __extendsfdf2
00011634 g     F .text	000001d0 .hidden __aeabi_ddiv
00011074 g     F .text	00000276 .hidden __adddf3
00012cbc  w    F .text	00000008 FLEXCOMM6_IRQHandler
000101d4  w    F .text	00000002 MRT0_DriverIRQHandler
000101d4  w    F .text	00000002 UTICK0_DriverIRQHandler
0001429c g       .text	00000000 __exidx_start
000101d4  w    F .text	00000002 Reserved41_DriverIRQHandler
20030262 g     O .bss	00000001 __lock___env_recursive_mutex
000113e0 g     F .text	00000254 .hidden __aeabi_dmul
00013a68 g     F .text	0000002a _isatty
20030263 g     O .bss	00000001 __lock___sinit_recursive_mutex
000140c8 g     O .text	00000004 _global_impure_ptr
000101d4  w    F .text	00000002 PIN_INT4_DriverIRQHandler
000101d4  w    F .text	00000002 PIN_INT5_DriverIRQHandler
00010e84 g     F .text	00000044 FLEXCOMM2_DriverIRQHandler
000101d4  w    F .text	00000002 SEC_GPIO_INT0_IRQ0_DriverIRQHandler
00013ad8 g     O .text	00000028 __mprec_bigtens
000112ec g     F .text	0000001e .hidden __floatunsidf
00012914 g     F .text	0000003c _sbrk
00013632 g     F .text	00000034 __mcmp
00010d60 g     F .text	00000078 ATSch
10052010 g     F *ABS*	00000008 upload_construct
00012dcc  w    F .text	00000008 HASHCRYPT_IRQHandler
00010130 g       .text	00000000 __data_section_table
000101d4  w    F .text	00000002 CTIMER4_DriverIRQHandler
000101d4  w    F .text	00000002 GINT1_DriverIRQHandler
00012d04  w    F .text	00000008 RTC_IRQHandler
2003026c g       .bss	00000000 _ebss
00012c8c  w    F .text	00000008 FLEXCOMM0_IRQHandler
0000446c g       *ABS*	00000000 _image_size
000133bc g     F .text	00000040 __hi0bits
00012d3c  w    F .text	00000008 CTIMER2_IRQHandler
00012bc0 g     F .text	0000004e .hidden __fixdfsi
000101d4  w    F .text	00000002 PIN_INT7_DriverIRQHandler
00012d84  w    F .text	00000008 Reserved61_IRQHandler
20030264 g     O .bss	00000001 __lock___malloc_recursive_mutex
00011074 g     F .text	00000276 .hidden __aeabi_dadd
00010190 g     F .text	0000001e data_init
000101d4  w    F .text	00000002 Reserved55_DriverIRQHandler
000101d4  w    F .text	00000002 HASHCRYPT_DriverIRQHandler
00012a8c g     F .text	00000082 .hidden __ledf2
10052018 g     F *ABS*	00000008 app_GPS_recv_s
00012240 g     F .text	0000009c __pow5mult
00011374 g     F .text	0000006a .hidden __aeabi_ul2d
000101d4  w    F .text	00000002 USB0_NEEDCLK_DriverIRQHandler
00012c84  w    F .text	00000008 CTIMER3_IRQHandler
000140cc g     O .text	00000020 __sf_fake_stderr
0001328e g     F .text	00000002 __retarget_lock_release_recursive
00010f94 g     F .text	00000044 FLEXCOMM6_DriverIRQHandler
000101d4  w    F .text	00000002 CTIMER0_DriverIRQHandler
00012d54  w    F .text	00000008 Reserved55_IRQHandler
00010000 g       *ABS*	00000000 __base_Flash
00012b80 g     F .text	00000012 .hidden __aeabi_dcmpgt
000101d4  w    F .text	00000002 CTIMER1_DriverIRQHandler
000137f0 g     F .text	00000024 __sfputs_r
00012c74  w    F .text	00000008 CTIMER1_IRQHandler
000101ca  w    F .text	00000002 SecureFault_Handler
000120d0 g     F .text	0000000c __sfp_lock_acquire
00013290 g     F .text	0000001c memchr
00011964  w    F .text	0000045c _printf_float
00012d24  w    F .text	00000008 PIN_INT5_IRQHandler
00011814 g     F .text	0000009c _free_r
000101d4  w    F .text	00000002 PIN_INT6_DriverIRQHandler
00012b6c g     F .text	00000012 .hidden __aeabi_dcmpge
00012c4c  w    F .text	00000008 PIN_INT2_IRQHandler
000101d4  w    F .text	00000002 PQ_DriverIRQHandler
00012c9c  w    F .text	00000008 FLEXCOMM2_IRQHandler
200301d0 g       .bss	00000000 _bss
00011070 g     F .text	0000027a .hidden __aeabi_dsub
00012de4  w    F .text	00000008 PQ_IRQHandler
00011374 g     F .text	0000006a .hidden __floatundidf
0001398c g     F .text	00000004 _lseek
000101d4  w    F .text	00000002 MAILBOX_DriverIRQHandler
0001358c g     F .text	000000a6 __lshift
000101d4  w    F .text	00000002 PIN_INT1_DriverIRQHandler
000101d4  w    F .text	00000002 CTIMER3_DriverIRQHandler
00010000 g       *ABS*	00000000 _image_start
00082000 g       *ABS*	00000000 __top_Flash
00012da4  w    F .text	00000008 SEC_HYPERVISOR_CALL_IRQHandler
0001346e g     F .text	0000011e __multiply
2003026c g       .noinit	00000000 _end_noinit
20040000 g       .stack	00000000 _vStackTop
00013726 g     F .text	0000009c __d2b
00012d34  w    F .text	00000008 PIN_INT7_IRQHandler
00010144 g       .text	00000000 __bss_section_table_end
000101d4  w    F .text	00000002 Reserved61_DriverIRQHandler
0001205c g     F .text	00000020 _close_r
000101d4  w    F .text	00000002 SEC_GPIO_INT0_IRQ1_DriverIRQHandler
00012a6c g     F .text	00000018 __check_heap_overflow
0001130c g     F .text	00000022 .hidden __aeabi_i2d
000101d4  w    F .text	00000002 PUF_DriverIRQHandler
00012c44  w    F .text	00000008 PIN_INT1_IRQHandler
000125f4 g     F .text	000000dc __swsetup_r
00011634 g     F .text	000001d0 .hidden __divdf3
00012170 g     F .text	0000008c __sfp
000101d4  w    F .text	00000002 RTC_DriverIRQHandler
000120f4 g     F .text	0000000c __sinit_lock_release
000113e0 g     F .text	00000254 .hidden __muldf3
00010000 g       *ABS*	00000000 __base_PROGRAM_FLASH
00010ec8 g     F .text	00000044 FLEXCOMM3_DriverIRQHandler
00013070 g     F .text	00000022 __sread
00012cfc  w    F .text	00000008 USB0_IRQHandler
00012228 g     F .text	0000000c __malloc_lock
10052020 g     F *ABS*	00000008 printdd
000127d8 g     F .text	00000078 _fflush_r
00012e44 g     F .text	0000001c _calloc_r
000140ec g     O .text	00000020 __sf_fake_stdin
00012ce4  w    F .text	00000008 Reserved41_IRQHandler
0001328c g     F .text	00000002 __retarget_lock_acquire_recursive
00012d8c  w    F .text	00000008 USB1_UTMI_IRQHandler
00012e34 g     F .text	00000010 memset
000101c4  w    F .text	00000002 MemManage_Handler
00010dd8 g     F .text	00000024 main
0001328a g     F .text	00000002 __retarget_lock_init_recursive
00012d14  w    F .text	00000008 MAILBOX_IRQHandler
000101cc  w    F .text	00000002 SVC_Handler
000130ee g     F .text	00000008 __sclose
000101d8 g     F .text	00000b60 _dtoa_r
000101d4  w    F .text	00000002 USB1_DriverIRQHandler
000118b0 g     F .text	000000b4 _malloc_r
00013880 g     F .text	0000001a __ascii_wctomb
00011384 g     F .text	0000005a .hidden __aeabi_l2d
000101d4  w    F .text	00000002 Reserved60_DriverIRQHandler
00013990 g     F .text	00000020 _swiwrite
000101d4  w    F .text	00000002 DMA1_DriverIRQHandler
00012c3c  w    F .text	00000008 PIN_INT0_IRQHandler
00012e0c g     F .text	0000000e SystemInit
00012c24  w    F .text	00000008 DMA0_IRQHandler
0001013c g       .text	00000000 __bss_section_table
00012a94 g     F .text	0000007a .hidden __nedf2
00011fe8 g     F .text	00000030 iprintf
00010f50 g     F .text	00000044 FLEXCOMM5_DriverIRQHandler
00012f1a g     F .text	00000066 __exponent
00012dfc g     F .text	00000010 AppNBIOTInit
00013914 g     F .text	00000078 _swilseek
00012038 g     F .text	00000024 _write_r
00012d0c  w    F .text	00000008 Reserved46_IRQHandler
00012f80 g     F .text	000000f0 _printf_common
20030000 g     O .data	00000004 _impure_ptr
000139f0 g     F .text	0000001a _swiclose
000126d0 g     F .text	00000108 __sflush_r
00012df4  w    F .text	00000008 FLEXCOMM8_IRQHandler
20030000 g       .uninit_RESERVED	00000000 _end_uninit_RESERVED
00012cf4  w    F .text	00000008 USB0_NEEDCLK_IRQHandler
0001385c g     F .text	00000024 __ascii_mbtowc
20030000 g       .data	00000000 _data
2003026c g       .heap	00000000 _pvHeapStart
00010144 g       .text	00000000 __section_table_end
00012dd4  w    F .text	00000008 CASER_IRQHandler
00012c2c  w    F .text	00000008 GINT0_IRQHandler
00012ddc  w    F .text	00000008 PUF_IRQHandler
00012cac  w    F .text	00000008 FLEXCOMM4_IRQHandler
000101d4  w    F .text	00000002 ADC0_DriverIRQHandler
00013814 g     F .text	00000048 __swhatbuf_r
00012b30 g     F .text	00000012 .hidden __aeabi_dcmpeq
000139b0 g     F .text	00000040 _write
000101d4  w    F .text	00000002 USB1_NEEDCLK_DriverIRQHandler
200301d0 g       .data	00000000 _edata
20030265 g     O .bss	00000001 __lock___at_quick_exit_mutex
00012c94  w    F .text	00000008 FLEXCOMM1_IRQHandler
00012dbc  w    F .text	00000008 PLU_IRQHandler
000101d4  w    F .text	00000002 Reserved59_DriverIRQHandler
00013092 g     F .text	00000038 __swrite
00010fd8 g     F .text	00000048 FLEXCOMM7_DriverIRQHandler
000122dc g     F .text	00000250 _vfiprintf_r
20030000 g       *ABS*	00000000 __base_RAM
00010000 g     O .text	00000130 g_pfnVectors
00010144 g     F .text	0000004c ResetISR
000101d4  w    F .text	00000002 SDIO_DriverIRQHandler
0001324e g     F .text	0000003c _fwalk_reent
0001446c g       *ABS*	00000000 _image_end
000101d4  w    F .text	00000002 GINT0_DriverIRQHandler
00013666 g     F .text	000000c0 __mdiff
00012bc0 g     F .text	0000004e .hidden __aeabi_d2iz
20030220 g     O .bss	00000004 __end_of_heap
000120dc g     F .text	0000000c __sfp_lock_release
0001410c g     O .text	00000020 __sf_fake_stdout
00012c64  w    F .text	00000008 MRT0_IRQHandler
0001418a g     O .text	00000101 _ctype_
00012d9c  w    F .text	00000008 USB1_NEEDCLK_IRQHandler
000138e0 g     F .text	00000034 _read
000101d4  w    F .text	00000002 ACMP_DriverIRQHandler
00012b94 g     F .text	0000002c .hidden __unorddf2
00012c54  w    F .text	00000008 PIN_INT3_IRQHandler
00011020 g     F .text	00000048 FLEXCOMM8_DriverIRQHandler
00012dac  w    F .text	00000008 SEC_GPIO_INT0_IRQ0_IRQHandler
000101d4  w    F .text	00000002 Reserved57_DriverIRQHandler
00012d5c  w    F .text	00000008 Reserved56_IRQHandler
000101c6  w    F .text	00000002 BusFault_Handler
20030266 g     O .bss	00000001 __lock___dd_hash_mutex
00012850 g     F .text	00000080 __smakebuf_r
20030267 g     O .bss	00000001 __lock___tz_mutex
000130f6 g     F .text	00000010 strlen
00011dc0 g     F .text	00000228 _printf_i
00012b20 g     F .text	00000010 .hidden __aeabi_cdcmpeq
00012a84 g     F .text	0000008a .hidden __gedf2
000101d4  w    F .text	00000002 Reserved46_DriverIRQHandler
2003021c g     O .bss	00000004 __malloc_sbrk_start
00012c6c  w    F .text	00000008 CTIMER0_IRQHandler
00011330 g     F .text	00000042 .hidden __aeabi_f2d
20030218 g     O .bss	00000004 __malloc_free_list
2003f000 g       .stack	00000000 _vStackBase
000101d4  w    F .text	00000002 USB1_UTMI_DriverIRQHandler
000101d4  w    F .text	00000002 WDT_BOD_DriverIRQHandler
000101d4  w    F .text	00000002 SCT0_DriverIRQHandler
00011070 g     F .text	0000027a .hidden __subdf3
000122dc g     F .text	00000250 _vfprintf_r
000101d4  w    F .text	00000002 PLU_DriverIRQHandler
00012c34  w    F .text	00000008 GINT1_IRQHandler
20040000 g       *ABS*	00000000 __top_Ram0
000133fc g     F .text	00000060 __lo0bits
000101d4  w    F .text	00000002 OS_EVENT_DriverIRQHandler
20030064 g     O .data	0000016c __global_locale
20030268 g     O .bss	00000001 __lock___sfp_recursive_mutex
000138c0 g     F .text	00000020 _swiread
00012dec  w    F .text	00000008 DMA1_IRQHandler
00012a20 g     F .text	0000004c _close
000120e8 g     F .text	0000000c __sinit_lock_acquire
00013342 g     F .text	0000007a __multadd
00013314 g     F .text	0000002e _Bfree
000101d4  w    F .text	00000002 SEC_HYPERVISOR_CALL_DriverIRQHandler



Disassembly of section .text:

00010000 <__Vectors>:
   10000:	00 00 04 20 45 01 01 00 c1 01 01 00 c3 01 01 00     ... E...........
   10010:	c5 01 01 00 c7 01 01 00 c9 01 01 00 cb 01 01 00     ................
	...
   1002c:	cd 01 01 00 cf 01 01 00 00 00 00 00 d1 01 01 00     ................
   1003c:	d3 01 01 00 1d 2c 01 00 25 2c 01 00 2d 2c 01 00     .....,..%,..-,..
   1004c:	35 2c 01 00 3d 2c 01 00 45 2c 01 00 4d 2c 01 00     5,..=,..E,..M,..
   1005c:	55 2c 01 00 5d 2c 01 00 65 2c 01 00 6d 2c 01 00     U,..],..e,..m,..
   1006c:	75 2c 01 00 7d 2c 01 00 85 2c 01 00 8d 2c 01 00     u,..},...,...,..
   1007c:	95 2c 01 00 9d 2c 01 00 a5 2c 01 00 ad 2c 01 00     .,...,...,...,..
   1008c:	b5 2c 01 00 bd 2c 01 00 c5 2c 01 00 cd 2c 01 00     .,...,...,...,..
   1009c:	d5 2c 01 00 dd 2c 01 00 e5 2c 01 00 ed 2c 01 00     .,...,...,...,..
   100ac:	f5 2c 01 00 fd 2c 01 00 05 2d 01 00 0d 2d 01 00     .,...,...-...-..
   100bc:	15 2d 01 00 1d 2d 01 00 25 2d 01 00 2d 2d 01 00     .-...-..%-..--..
   100cc:	35 2d 01 00 3d 2d 01 00 45 2d 01 00 4d 2d 01 00     5-..=-..E-..M-..
   100dc:	55 2d 01 00 5d 2d 01 00 65 2d 01 00 6d 2d 01 00     U-..]-..e-..m-..
   100ec:	75 2d 01 00 7d 2d 01 00 85 2d 01 00 8d 2d 01 00     u-..}-...-...-..
   100fc:	95 2d 01 00 9d 2d 01 00 a5 2d 01 00 ad 2d 01 00     .-...-...-...-..
   1010c:	b5 2d 01 00 bd 2d 01 00 c5 2d 01 00 cd 2d 01 00     .-...-...-...-..
   1011c:	d5 2d 01 00 dd 2d 01 00 e5 2d 01 00 ed 2d 01 00     .-...-...-...-..
   1012c:	f5 2d 01 00                                         .-..

00010130 <__data_section_table>:
   10130:	0001429c 	.word	0x0001429c
   10134:	20030000 	.word	0x20030000
   10138:	000001d0 	.word	0x000001d0

0001013c <__bss_section_table>:
   1013c:	200301d0 	.word	0x200301d0
   10140:	0000009c 	.word	0x0000009c

00010144 <ResetISR>:
   10144:	b510      	push	{r4, lr}
   10146:	b672      	cpsid	i
   10148:	f002 fe60 	bl	12e0c <SystemInit>
   1014c:	4b0d      	ldr	r3, [pc, #52]	; (10184 <ResetISR+0x40>)
   1014e:	e007      	b.n	10160 <ResetISR+0x1c>
   10150:	f103 040c 	add.w	r4, r3, #12
   10154:	689a      	ldr	r2, [r3, #8]
   10156:	6859      	ldr	r1, [r3, #4]
   10158:	6818      	ldr	r0, [r3, #0]
   1015a:	f000 f819 	bl	10190 <data_init>
   1015e:	4623      	mov	r3, r4
   10160:	4a09      	ldr	r2, [pc, #36]	; (10188 <ResetISR+0x44>)
   10162:	4293      	cmp	r3, r2
   10164:	d3f4      	bcc.n	10150 <ResetISR+0xc>
   10166:	e006      	b.n	10176 <ResetISR+0x32>
   10168:	461c      	mov	r4, r3
   1016a:	6859      	ldr	r1, [r3, #4]
   1016c:	f854 0b08 	ldr.w	r0, [r4], #8
   10170:	f000 f81d 	bl	101ae <bss_init>
   10174:	4623      	mov	r3, r4
   10176:	4a05      	ldr	r2, [pc, #20]	; (1018c <ResetISR+0x48>)
   10178:	4293      	cmp	r3, r2
   1017a:	d3f5      	bcc.n	10168 <ResetISR+0x24>
   1017c:	b662      	cpsie	i
   1017e:	f000 fe2b 	bl	10dd8 <main>
   10182:	e7fe      	b.n	10182 <ResetISR+0x3e>
   10184:	00010130 	.word	0x00010130
   10188:	0001013c 	.word	0x0001013c
   1018c:	00010144 	.word	0x00010144

00010190 <data_init>:
   10190:	2300      	movs	r3, #0
   10192:	4293      	cmp	r3, r2
   10194:	d20a      	bcs.n	101ac <data_init+0x1c>
   10196:	b410      	push	{r4}
   10198:	f850 4b04 	ldr.w	r4, [r0], #4
   1019c:	f841 4b04 	str.w	r4, [r1], #4
   101a0:	3304      	adds	r3, #4
   101a2:	4293      	cmp	r3, r2
   101a4:	d3f8      	bcc.n	10198 <data_init+0x8>
   101a6:	f85d 4b04 	ldr.w	r4, [sp], #4
   101aa:	4770      	bx	lr
   101ac:	4770      	bx	lr

000101ae <bss_init>:
   101ae:	2300      	movs	r3, #0
   101b0:	428b      	cmp	r3, r1
   101b2:	d204      	bcs.n	101be <bss_init+0x10>
   101b4:	2200      	movs	r2, #0
   101b6:	f840 2b04 	str.w	r2, [r0], #4
   101ba:	3304      	adds	r3, #4
   101bc:	e7f8      	b.n	101b0 <bss_init+0x2>
   101be:	4770      	bx	lr

000101c0 <NMI_Handler>:
   101c0:	e7fe      	b.n	101c0 <NMI_Handler>

000101c2 <HardFault_Handler>:
   101c2:	e7fe      	b.n	101c2 <HardFault_Handler>

000101c4 <MemManage_Handler>:
   101c4:	e7fe      	b.n	101c4 <MemManage_Handler>

000101c6 <BusFault_Handler>:
   101c6:	e7fe      	b.n	101c6 <BusFault_Handler>

000101c8 <UsageFault_Handler>:
   101c8:	e7fe      	b.n	101c8 <UsageFault_Handler>

000101ca <SecureFault_Handler>:
   101ca:	e7fe      	b.n	101ca <SecureFault_Handler>

000101cc <SVC_Handler>:
   101cc:	e7fe      	b.n	101cc <SVC_Handler>

000101ce <DebugMon_Handler>:
   101ce:	e7fe      	b.n	101ce <DebugMon_Handler>

000101d0 <PendSV_Handler>:
   101d0:	e7fe      	b.n	101d0 <PendSV_Handler>

000101d2 <SysTick_Handler>:
   101d2:	e7fe      	b.n	101d2 <SysTick_Handler>

000101d4 <ACMP_DriverIRQHandler>:
   101d4:	e7fe      	b.n	101d4 <ACMP_DriverIRQHandler>
   101d6:	Address 0x000101d6 is out of bounds.


000101d8 <_dtoa_r>:
   101d8:	e92d 4ff0 	stmdb	sp!, {r4, r5, r6, r7, r8, r9, sl, fp, lr}
   101dc:	6a47      	ldr	r7, [r0, #36]	; 0x24
   101de:	b099      	sub	sp, #100	; 0x64
   101e0:	4683      	mov	fp, r0
   101e2:	9108      	str	r1, [sp, #32]
   101e4:	920d      	str	r2, [sp, #52]	; 0x34
   101e6:	9314      	str	r3, [sp, #80]	; 0x50
   101e8:	9e22      	ldr	r6, [sp, #136]	; 0x88
   101ea:	ec55 4b10 	vmov	r4, r5, d0
   101ee:	e9cd 4500 	strd	r4, r5, [sp]
   101f2:	b947      	cbnz	r7, 10206 <_dtoa_r+0x2e>
   101f4:	2010      	movs	r0, #16
   101f6:	f001 fb05 	bl	11804 <malloc>
   101fa:	f8cb 0024 	str.w	r0, [fp, #36]	; 0x24
   101fe:	6007      	str	r7, [r0, #0]
   10200:	60c7      	str	r7, [r0, #12]
   10202:	e9c0 7701 	strd	r7, r7, [r0, #4]
   10206:	f8db 3024 	ldr.w	r3, [fp, #36]	; 0x24
   1020a:	6819      	ldr	r1, [r3, #0]
   1020c:	b159      	cbz	r1, 10226 <_dtoa_r+0x4e>
   1020e:	685a      	ldr	r2, [r3, #4]
   10210:	2301      	movs	r3, #1
   10212:	4658      	mov	r0, fp
   10214:	4093      	lsls	r3, r2
   10216:	604a      	str	r2, [r1, #4]
   10218:	608b      	str	r3, [r1, #8]
   1021a:	f003 f87b 	bl	13314 <_Bfree>
   1021e:	f8db 3024 	ldr.w	r3, [fp, #36]	; 0x24
   10222:	2200      	movs	r2, #0
   10224:	601a      	str	r2, [r3, #0]
   10226:	1e2b      	subs	r3, r5, #0
   10228:	bfb7      	itett	lt
   1022a:	f023 4300 	biclt.w	r3, r3, #2147483648	; 0x80000000
   1022e:	2300      	movge	r3, #0
   10230:	2201      	movlt	r2, #1
   10232:	9301      	strlt	r3, [sp, #4]
   10234:	bfa8      	it	ge
   10236:	6033      	strge	r3, [r6, #0]
   10238:	9c01      	ldr	r4, [sp, #4]
   1023a:	4bb1      	ldr	r3, [pc, #708]	; (10500 <_dtoa_r+0x328>)
   1023c:	bfb8      	it	lt
   1023e:	6032      	strlt	r2, [r6, #0]
   10240:	43a3      	bics	r3, r4
   10242:	d11a      	bne.n	1027a <_dtoa_r+0xa2>
   10244:	f242 730f 	movw	r3, #9999	; 0x270f
   10248:	9a14      	ldr	r2, [sp, #80]	; 0x50
   1024a:	6013      	str	r3, [r2, #0]
   1024c:	f3c4 0313 	ubfx	r3, r4, #0, #20
   10250:	9a00      	ldr	r2, [sp, #0]
   10252:	4313      	orrs	r3, r2
   10254:	f000 8547 	beq.w	10ce6 <_dtoa_r+0xb0e>
   10258:	9b23      	ldr	r3, [sp, #140]	; 0x8c
   1025a:	b953      	cbnz	r3, 10272 <_dtoa_r+0x9a>
   1025c:	4ba9      	ldr	r3, [pc, #676]	; (10504 <_dtoa_r+0x32c>)
   1025e:	e023      	b.n	102a8 <_dtoa_r+0xd0>
   10260:	4ba9      	ldr	r3, [pc, #676]	; (10508 <_dtoa_r+0x330>)
   10262:	9303      	str	r3, [sp, #12]
   10264:	3308      	adds	r3, #8
   10266:	9a23      	ldr	r2, [sp, #140]	; 0x8c
   10268:	6013      	str	r3, [r2, #0]
   1026a:	9803      	ldr	r0, [sp, #12]
   1026c:	b019      	add	sp, #100	; 0x64
   1026e:	e8bd 8ff0 	ldmia.w	sp!, {r4, r5, r6, r7, r8, r9, sl, fp, pc}
   10272:	4ba4      	ldr	r3, [pc, #656]	; (10504 <_dtoa_r+0x32c>)
   10274:	9303      	str	r3, [sp, #12]
   10276:	3303      	adds	r3, #3
   10278:	e7f5      	b.n	10266 <_dtoa_r+0x8e>
   1027a:	ed9d 7b00 	vldr	d7, [sp]
   1027e:	2200      	movs	r2, #0
   10280:	2300      	movs	r3, #0
   10282:	ec51 0b17 	vmov	r0, r1, d7
   10286:	ed8d 7b0e 	vstr	d7, [sp, #56]	; 0x38
   1028a:	f002 fc51 	bl	12b30 <__aeabi_dcmpeq>
   1028e:	4607      	mov	r7, r0
   10290:	b160      	cbz	r0, 102ac <_dtoa_r+0xd4>
   10292:	2301      	movs	r3, #1
   10294:	9a14      	ldr	r2, [sp, #80]	; 0x50
   10296:	6013      	str	r3, [r2, #0]
   10298:	9b23      	ldr	r3, [sp, #140]	; 0x8c
   1029a:	2b00      	cmp	r3, #0
   1029c:	f000 8520 	beq.w	10ce0 <_dtoa_r+0xb08>
   102a0:	4b9a      	ldr	r3, [pc, #616]	; (1050c <_dtoa_r+0x334>)
   102a2:	9a23      	ldr	r2, [sp, #140]	; 0x8c
   102a4:	6013      	str	r3, [r2, #0]
   102a6:	3b01      	subs	r3, #1
   102a8:	9303      	str	r3, [sp, #12]
   102aa:	e7de      	b.n	1026a <_dtoa_r+0x92>
   102ac:	f3c4 560a 	ubfx	r6, r4, #20, #11
   102b0:	aa16      	add	r2, sp, #88	; 0x58
   102b2:	a917      	add	r1, sp, #92	; 0x5c
   102b4:	4658      	mov	r0, fp
   102b6:	ed9d 0b0e 	vldr	d0, [sp, #56]	; 0x38
   102ba:	f003 fa34 	bl	13726 <__d2b>
   102be:	4680      	mov	r8, r0
   102c0:	2e00      	cmp	r6, #0
   102c2:	d07d      	beq.n	103c0 <_dtoa_r+0x1e8>
   102c4:	9b0f      	ldr	r3, [sp, #60]	; 0x3c
   102c6:	f2a6 36ff 	subw	r6, r6, #1023	; 0x3ff
   102ca:	9715      	str	r7, [sp, #84]	; 0x54
   102cc:	f3c3 0313 	ubfx	r3, r3, #0, #20
   102d0:	e9dd 450e 	ldrd	r4, r5, [sp, #56]	; 0x38
   102d4:	f043 557f 	orr.w	r5, r3, #1069547520	; 0x3fc00000
   102d8:	f445 1540 	orr.w	r5, r5, #3145728	; 0x300000
   102dc:	2200      	movs	r2, #0
   102de:	4b8c      	ldr	r3, [pc, #560]	; (10510 <_dtoa_r+0x338>)
   102e0:	4620      	mov	r0, r4
   102e2:	4629      	mov	r1, r5
   102e4:	f000 fec4 	bl	11070 <__aeabi_dsub>
   102e8:	a37f      	add	r3, pc, #508	; (adr r3, 104e8 <_dtoa_r+0x310>)
   102ea:	e9d3 2300 	ldrd	r2, r3, [r3]
   102ee:	f001 f877 	bl	113e0 <__aeabi_dmul>
   102f2:	a37f      	add	r3, pc, #508	; (adr r3, 104f0 <_dtoa_r+0x318>)
   102f4:	e9d3 2300 	ldrd	r2, r3, [r3]
   102f8:	f000 febc 	bl	11074 <__adddf3>
   102fc:	4604      	mov	r4, r0
   102fe:	460d      	mov	r5, r1
   10300:	4630      	mov	r0, r6
   10302:	f001 f803 	bl	1130c <__aeabi_i2d>
   10306:	a37c      	add	r3, pc, #496	; (adr r3, 104f8 <_dtoa_r+0x320>)
   10308:	e9d3 2300 	ldrd	r2, r3, [r3]
   1030c:	f001 f868 	bl	113e0 <__aeabi_dmul>
   10310:	4602      	mov	r2, r0
   10312:	460b      	mov	r3, r1
   10314:	4620      	mov	r0, r4
   10316:	4629      	mov	r1, r5
   10318:	f000 feac 	bl	11074 <__adddf3>
   1031c:	4604      	mov	r4, r0
   1031e:	460d      	mov	r5, r1
   10320:	f002 fc4e 	bl	12bc0 <__aeabi_d2iz>
   10324:	2200      	movs	r2, #0
   10326:	4682      	mov	sl, r0
   10328:	2300      	movs	r3, #0
   1032a:	4620      	mov	r0, r4
   1032c:	4629      	mov	r1, r5
   1032e:	f002 fc09 	bl	12b44 <__aeabi_dcmplt>
   10332:	b148      	cbz	r0, 10348 <_dtoa_r+0x170>
   10334:	4650      	mov	r0, sl
   10336:	f000 ffe9 	bl	1130c <__aeabi_i2d>
   1033a:	4622      	mov	r2, r4
   1033c:	462b      	mov	r3, r5
   1033e:	f002 fbf7 	bl	12b30 <__aeabi_dcmpeq>
   10342:	b908      	cbnz	r0, 10348 <_dtoa_r+0x170>
   10344:	f10a 3aff 	add.w	sl, sl, #4294967295
   10348:	f1ba 0f16 	cmp.w	sl, #22
   1034c:	d857      	bhi.n	103fe <_dtoa_r+0x226>
   1034e:	4b71      	ldr	r3, [pc, #452]	; (10514 <_dtoa_r+0x33c>)
   10350:	eb03 03ca 	add.w	r3, r3, sl, lsl #3
   10354:	e9dd 010e 	ldrd	r0, r1, [sp, #56]	; 0x38
   10358:	e9d3 2300 	ldrd	r2, r3, [r3]
   1035c:	f002 fbf2 	bl	12b44 <__aeabi_dcmplt>
   10360:	2800      	cmp	r0, #0
   10362:	d04e      	beq.n	10402 <_dtoa_r+0x22a>
   10364:	f10a 3aff 	add.w	sl, sl, #4294967295
   10368:	2300      	movs	r3, #0
   1036a:	9311      	str	r3, [sp, #68]	; 0x44
   1036c:	9b16      	ldr	r3, [sp, #88]	; 0x58
   1036e:	1b9e      	subs	r6, r3, r6
   10370:	1e73      	subs	r3, r6, #1
   10372:	9307      	str	r3, [sp, #28]
   10374:	bf49      	itett	mi
   10376:	f1c6 0301 	rsbmi	r3, r6, #1
   1037a:	2300      	movpl	r3, #0
   1037c:	9306      	strmi	r3, [sp, #24]
   1037e:	2300      	movmi	r3, #0
   10380:	bf54      	ite	pl
   10382:	9306      	strpl	r3, [sp, #24]
   10384:	9307      	strmi	r3, [sp, #28]
   10386:	f1ba 0f00 	cmp.w	sl, #0
   1038a:	db3c      	blt.n	10406 <_dtoa_r+0x22e>
   1038c:	9b07      	ldr	r3, [sp, #28]
   1038e:	f8cd a040 	str.w	sl, [sp, #64]	; 0x40
   10392:	4453      	add	r3, sl
   10394:	9307      	str	r3, [sp, #28]
   10396:	2300      	movs	r3, #0
   10398:	9309      	str	r3, [sp, #36]	; 0x24
   1039a:	9b08      	ldr	r3, [sp, #32]
   1039c:	2b09      	cmp	r3, #9
   1039e:	f200 808d 	bhi.w	104bc <_dtoa_r+0x2e4>
   103a2:	2b05      	cmp	r3, #5
   103a4:	bfc5      	ittet	gt
   103a6:	3b04      	subgt	r3, #4
   103a8:	2400      	movgt	r4, #0
   103aa:	2401      	movle	r4, #1
   103ac:	9308      	strgt	r3, [sp, #32]
   103ae:	9b08      	ldr	r3, [sp, #32]
   103b0:	3b02      	subs	r3, #2
   103b2:	2b03      	cmp	r3, #3
   103b4:	f200 808d 	bhi.w	104d2 <_dtoa_r+0x2fa>
   103b8:	e8df f003 	tbb	[pc, r3]
   103bc:	7e3a3c2f 	.word	0x7e3a3c2f
   103c0:	e9dd 6316 	ldrd	r6, r3, [sp, #88]	; 0x58
   103c4:	441e      	add	r6, r3
   103c6:	f206 4032 	addw	r0, r6, #1074	; 0x432
   103ca:	2820      	cmp	r0, #32
   103cc:	dd11      	ble.n	103f2 <_dtoa_r+0x21a>
   103ce:	f1c0 0040 	rsb	r0, r0, #64	; 0x40
   103d2:	9b00      	ldr	r3, [sp, #0]
   103d4:	4084      	lsls	r4, r0
   103d6:	f206 4012 	addw	r0, r6, #1042	; 0x412
   103da:	fa23 f000 	lsr.w	r0, r3, r0
   103de:	4320      	orrs	r0, r4
   103e0:	f000 ff84 	bl	112ec <__aeabi_ui2d>
   103e4:	2301      	movs	r3, #1
   103e6:	4604      	mov	r4, r0
   103e8:	f1a1 75f8 	sub.w	r5, r1, #32505856	; 0x1f00000
   103ec:	3e01      	subs	r6, #1
   103ee:	9315      	str	r3, [sp, #84]	; 0x54
   103f0:	e774      	b.n	102dc <_dtoa_r+0x104>
   103f2:	f1c0 0020 	rsb	r0, r0, #32
   103f6:	9b00      	ldr	r3, [sp, #0]
   103f8:	fa03 f000 	lsl.w	r0, r3, r0
   103fc:	e7f0      	b.n	103e0 <_dtoa_r+0x208>
   103fe:	2301      	movs	r3, #1
   10400:	e7b3      	b.n	1036a <_dtoa_r+0x192>
   10402:	9011      	str	r0, [sp, #68]	; 0x44
   10404:	e7b2      	b.n	1036c <_dtoa_r+0x194>
   10406:	9b06      	ldr	r3, [sp, #24]
   10408:	eba3 030a 	sub.w	r3, r3, sl
   1040c:	9306      	str	r3, [sp, #24]
   1040e:	f1ca 0300 	rsb	r3, sl, #0
   10412:	9309      	str	r3, [sp, #36]	; 0x24
   10414:	2300      	movs	r3, #0
   10416:	9310      	str	r3, [sp, #64]	; 0x40
   10418:	e7bf      	b.n	1039a <_dtoa_r+0x1c2>
   1041a:	2300      	movs	r3, #0
   1041c:	930c      	str	r3, [sp, #48]	; 0x30
   1041e:	9b0d      	ldr	r3, [sp, #52]	; 0x34
   10420:	2b00      	cmp	r3, #0
   10422:	dc59      	bgt.n	104d8 <_dtoa_r+0x300>
   10424:	2301      	movs	r3, #1
   10426:	4699      	mov	r9, r3
   10428:	461a      	mov	r2, r3
   1042a:	9304      	str	r3, [sp, #16]
   1042c:	920d      	str	r2, [sp, #52]	; 0x34
   1042e:	e00c      	b.n	1044a <_dtoa_r+0x272>
   10430:	2301      	movs	r3, #1
   10432:	e7f3      	b.n	1041c <_dtoa_r+0x244>
   10434:	2300      	movs	r3, #0
   10436:	930c      	str	r3, [sp, #48]	; 0x30
   10438:	9b0d      	ldr	r3, [sp, #52]	; 0x34
   1043a:	4453      	add	r3, sl
   1043c:	f103 0901 	add.w	r9, r3, #1
   10440:	9304      	str	r3, [sp, #16]
   10442:	464b      	mov	r3, r9
   10444:	2b01      	cmp	r3, #1
   10446:	bfb8      	it	lt
   10448:	2301      	movlt	r3, #1
   1044a:	2200      	movs	r2, #0
   1044c:	f8db 5024 	ldr.w	r5, [fp, #36]	; 0x24
   10450:	606a      	str	r2, [r5, #4]
   10452:	2204      	movs	r2, #4
   10454:	f102 0014 	add.w	r0, r2, #20
   10458:	6869      	ldr	r1, [r5, #4]
   1045a:	4298      	cmp	r0, r3
   1045c:	d940      	bls.n	104e0 <_dtoa_r+0x308>
   1045e:	4658      	mov	r0, fp
   10460:	f002 ff24 	bl	132ac <_Balloc>
   10464:	f8db 3024 	ldr.w	r3, [fp, #36]	; 0x24
   10468:	6028      	str	r0, [r5, #0]
   1046a:	f1b9 0f0e 	cmp.w	r9, #14
   1046e:	681b      	ldr	r3, [r3, #0]
   10470:	9303      	str	r3, [sp, #12]
   10472:	f200 80d4 	bhi.w	1061e <_dtoa_r+0x446>
   10476:	2c00      	cmp	r4, #0
   10478:	f000 80d1 	beq.w	1061e <_dtoa_r+0x446>
   1047c:	f1ba 0f00 	cmp.w	sl, #0
   10480:	dd66      	ble.n	10550 <_dtoa_r+0x378>
   10482:	4a24      	ldr	r2, [pc, #144]	; (10514 <_dtoa_r+0x33c>)
   10484:	f00a 030f 	and.w	r3, sl, #15
   10488:	ea4f 142a 	mov.w	r4, sl, asr #4
   1048c:	eb02 03c3 	add.w	r3, r2, r3, lsl #3
   10490:	06e2      	lsls	r2, r4, #27
   10492:	ed93 7b00 	vldr	d7, [r3]
   10496:	ed8d 7b0a 	vstr	d7, [sp, #40]	; 0x28
   1049a:	d557      	bpl.n	1054c <_dtoa_r+0x374>
   1049c:	4b1e      	ldr	r3, [pc, #120]	; (10518 <_dtoa_r+0x340>)
   1049e:	f004 040f 	and.w	r4, r4, #15
   104a2:	2603      	movs	r6, #3
   104a4:	e9d3 2308 	ldrd	r2, r3, [r3, #32]
   104a8:	e9dd 010e 	ldrd	r0, r1, [sp, #56]	; 0x38
   104ac:	f001 f8c2 	bl	11634 <__aeabi_ddiv>
   104b0:	e9cd 0100 	strd	r0, r1, [sp]
   104b4:	4d18      	ldr	r5, [pc, #96]	; (10518 <_dtoa_r+0x340>)
   104b6:	e03e      	b.n	10536 <_dtoa_r+0x35e>
   104b8:	2301      	movs	r3, #1
   104ba:	e7bc      	b.n	10436 <_dtoa_r+0x25e>
   104bc:	2401      	movs	r4, #1
   104be:	2300      	movs	r3, #0
   104c0:	940c      	str	r4, [sp, #48]	; 0x30
   104c2:	9308      	str	r3, [sp, #32]
   104c4:	f04f 33ff 	mov.w	r3, #4294967295
   104c8:	2200      	movs	r2, #0
   104ca:	9304      	str	r3, [sp, #16]
   104cc:	4699      	mov	r9, r3
   104ce:	2312      	movs	r3, #18
   104d0:	e7ac      	b.n	1042c <_dtoa_r+0x254>
   104d2:	2301      	movs	r3, #1
   104d4:	930c      	str	r3, [sp, #48]	; 0x30
   104d6:	e7f5      	b.n	104c4 <_dtoa_r+0x2ec>
   104d8:	9b0d      	ldr	r3, [sp, #52]	; 0x34
   104da:	9304      	str	r3, [sp, #16]
   104dc:	4699      	mov	r9, r3
   104de:	e7b4      	b.n	1044a <_dtoa_r+0x272>
   104e0:	3101      	adds	r1, #1
   104e2:	0052      	lsls	r2, r2, #1
   104e4:	6069      	str	r1, [r5, #4]
   104e6:	e7b5      	b.n	10454 <_dtoa_r+0x27c>
   104e8:	636f4361 	.word	0x636f4361
   104ec:	3fd287a7 	.word	0x3fd287a7
   104f0:	8b60c8b3 	.word	0x8b60c8b3
   104f4:	3fc68a28 	.word	0x3fc68a28
   104f8:	509f79fb 	.word	0x509f79fb
   104fc:	3fd34413 	.word	0x3fd34413
   10500:	7ff00000 	.word	0x7ff00000
   10504:	00014175 	.word	0x00014175
   10508:	0001416c 	.word	0x0001416c
   1050c:	00014149 	.word	0x00014149
   10510:	3ff80000 	.word	0x3ff80000
   10514:	00013b00 	.word	0x00013b00
   10518:	00013ad8 	.word	0x00013ad8
   1051c:	07e3      	lsls	r3, r4, #31
   1051e:	d508      	bpl.n	10532 <_dtoa_r+0x35a>
   10520:	3601      	adds	r6, #1
   10522:	e9dd 010a 	ldrd	r0, r1, [sp, #40]	; 0x28
   10526:	e9d5 2300 	ldrd	r2, r3, [r5]
   1052a:	f000 ff59 	bl	113e0 <__aeabi_dmul>
   1052e:	e9cd 010a 	strd	r0, r1, [sp, #40]	; 0x28
   10532:	1064      	asrs	r4, r4, #1
   10534:	3508      	adds	r5, #8
   10536:	2c00      	cmp	r4, #0
   10538:	d1f0      	bne.n	1051c <_dtoa_r+0x344>
   1053a:	e9dd 230a 	ldrd	r2, r3, [sp, #40]	; 0x28
   1053e:	e9dd 0100 	ldrd	r0, r1, [sp]
   10542:	f001 f877 	bl	11634 <__aeabi_ddiv>
   10546:	e9cd 0100 	strd	r0, r1, [sp]
   1054a:	e01a      	b.n	10582 <_dtoa_r+0x3aa>
   1054c:	2602      	movs	r6, #2
   1054e:	e7b1      	b.n	104b4 <_dtoa_r+0x2dc>
   10550:	f000 809f 	beq.w	10692 <_dtoa_r+0x4ba>
   10554:	f1ca 0400 	rsb	r4, sl, #0
   10558:	4b9e      	ldr	r3, [pc, #632]	; (107d4 <_dtoa_r+0x5fc>)
   1055a:	4d9f      	ldr	r5, [pc, #636]	; (107d8 <_dtoa_r+0x600>)
   1055c:	2602      	movs	r6, #2
   1055e:	f004 020f 	and.w	r2, r4, #15
   10562:	1124      	asrs	r4, r4, #4
   10564:	eb03 03c2 	add.w	r3, r3, r2, lsl #3
   10568:	e9dd 010e 	ldrd	r0, r1, [sp, #56]	; 0x38
   1056c:	e9d3 2300 	ldrd	r2, r3, [r3]
   10570:	f000 ff36 	bl	113e0 <__aeabi_dmul>
   10574:	2300      	movs	r3, #0
   10576:	e9cd 0100 	strd	r0, r1, [sp]
   1057a:	2c00      	cmp	r4, #0
   1057c:	d17e      	bne.n	1067c <_dtoa_r+0x4a4>
   1057e:	2b00      	cmp	r3, #0
   10580:	d1e1      	bne.n	10546 <_dtoa_r+0x36e>
   10582:	9b11      	ldr	r3, [sp, #68]	; 0x44
   10584:	2b00      	cmp	r3, #0
   10586:	f000 8086 	beq.w	10696 <_dtoa_r+0x4be>
   1058a:	2200      	movs	r2, #0
   1058c:	4b93      	ldr	r3, [pc, #588]	; (107dc <_dtoa_r+0x604>)
   1058e:	e9dd 4500 	ldrd	r4, r5, [sp]
   10592:	4620      	mov	r0, r4
   10594:	4629      	mov	r1, r5
   10596:	f002 fad5 	bl	12b44 <__aeabi_dcmplt>
   1059a:	2800      	cmp	r0, #0
   1059c:	d07b      	beq.n	10696 <_dtoa_r+0x4be>
   1059e:	f1b9 0f00 	cmp.w	r9, #0
   105a2:	d078      	beq.n	10696 <_dtoa_r+0x4be>
   105a4:	9b04      	ldr	r3, [sp, #16]
   105a6:	2b00      	cmp	r3, #0
   105a8:	dd35      	ble.n	10616 <_dtoa_r+0x43e>
   105aa:	f10a 33ff 	add.w	r3, sl, #4294967295
   105ae:	4620      	mov	r0, r4
   105b0:	2200      	movs	r2, #0
   105b2:	4629      	mov	r1, r5
   105b4:	930a      	str	r3, [sp, #40]	; 0x28
   105b6:	3601      	adds	r6, #1
   105b8:	4b89      	ldr	r3, [pc, #548]	; (107e0 <_dtoa_r+0x608>)
   105ba:	f000 ff11 	bl	113e0 <__aeabi_dmul>
   105be:	9c04      	ldr	r4, [sp, #16]
   105c0:	e9cd 0100 	strd	r0, r1, [sp]
   105c4:	4630      	mov	r0, r6
   105c6:	f000 fea1 	bl	1130c <__aeabi_i2d>
   105ca:	e9dd 2300 	ldrd	r2, r3, [sp]
   105ce:	f000 ff07 	bl	113e0 <__aeabi_dmul>
   105d2:	2200      	movs	r2, #0
   105d4:	4b83      	ldr	r3, [pc, #524]	; (107e4 <_dtoa_r+0x60c>)
   105d6:	f000 fd4d 	bl	11074 <__adddf3>
   105da:	4606      	mov	r6, r0
   105dc:	f1a1 7750 	sub.w	r7, r1, #54525952	; 0x3400000
   105e0:	2c00      	cmp	r4, #0
   105e2:	d15c      	bne.n	1069e <_dtoa_r+0x4c6>
   105e4:	2200      	movs	r2, #0
   105e6:	4b80      	ldr	r3, [pc, #512]	; (107e8 <_dtoa_r+0x610>)
   105e8:	e9dd 0100 	ldrd	r0, r1, [sp]
   105ec:	f000 fd40 	bl	11070 <__aeabi_dsub>
   105f0:	4632      	mov	r2, r6
   105f2:	463b      	mov	r3, r7
   105f4:	e9cd 0100 	strd	r0, r1, [sp]
   105f8:	f002 fac2 	bl	12b80 <__aeabi_dcmpgt>
   105fc:	2800      	cmp	r0, #0
   105fe:	f040 8289 	bne.w	10b14 <_dtoa_r+0x93c>
   10602:	4632      	mov	r2, r6
   10604:	f107 4300 	add.w	r3, r7, #2147483648	; 0x80000000
   10608:	e9dd 0100 	ldrd	r0, r1, [sp]
   1060c:	f002 fa9a 	bl	12b44 <__aeabi_dcmplt>
   10610:	2800      	cmp	r0, #0
   10612:	f040 827d 	bne.w	10b10 <_dtoa_r+0x938>
   10616:	e9dd 340e 	ldrd	r3, r4, [sp, #56]	; 0x38
   1061a:	e9cd 3400 	strd	r3, r4, [sp]
   1061e:	9b17      	ldr	r3, [sp, #92]	; 0x5c
   10620:	2b00      	cmp	r3, #0
   10622:	f2c0 814c 	blt.w	108be <_dtoa_r+0x6e6>
   10626:	f1ba 0f0e 	cmp.w	sl, #14
   1062a:	f300 8148 	bgt.w	108be <_dtoa_r+0x6e6>
   1062e:	4b69      	ldr	r3, [pc, #420]	; (107d4 <_dtoa_r+0x5fc>)
   10630:	eb03 03ca 	add.w	r3, r3, sl, lsl #3
   10634:	ed93 7b00 	vldr	d7, [r3]
   10638:	9b0d      	ldr	r3, [sp, #52]	; 0x34
   1063a:	2b00      	cmp	r3, #0
   1063c:	ed8d 7b04 	vstr	d7, [sp, #16]
   10640:	f280 80d6 	bge.w	107f0 <_dtoa_r+0x618>
   10644:	f1b9 0f00 	cmp.w	r9, #0
   10648:	f300 80d2 	bgt.w	107f0 <_dtoa_r+0x618>
   1064c:	f040 825f 	bne.w	10b0e <_dtoa_r+0x936>
   10650:	2200      	movs	r2, #0
   10652:	4b65      	ldr	r3, [pc, #404]	; (107e8 <_dtoa_r+0x610>)
   10654:	464c      	mov	r4, r9
   10656:	464e      	mov	r6, r9
   10658:	ec51 0b17 	vmov	r0, r1, d7
   1065c:	f000 fec0 	bl	113e0 <__aeabi_dmul>
   10660:	e9dd 2300 	ldrd	r2, r3, [sp]
   10664:	f002 fa82 	bl	12b6c <__aeabi_dcmpge>
   10668:	2800      	cmp	r0, #0
   1066a:	f040 8238 	bne.w	10ade <_dtoa_r+0x906>
   1066e:	9d03      	ldr	r5, [sp, #12]
   10670:	2331      	movs	r3, #49	; 0x31
   10672:	f10a 0a01 	add.w	sl, sl, #1
   10676:	f805 3b01 	strb.w	r3, [r5], #1
   1067a:	e234      	b.n	10ae6 <_dtoa_r+0x90e>
   1067c:	07e7      	lsls	r7, r4, #31
   1067e:	d505      	bpl.n	1068c <_dtoa_r+0x4b4>
   10680:	3601      	adds	r6, #1
   10682:	e9d5 2300 	ldrd	r2, r3, [r5]
   10686:	f000 feab 	bl	113e0 <__aeabi_dmul>
   1068a:	2301      	movs	r3, #1
   1068c:	1064      	asrs	r4, r4, #1
   1068e:	3508      	adds	r5, #8
   10690:	e773      	b.n	1057a <_dtoa_r+0x3a2>
   10692:	2602      	movs	r6, #2
   10694:	e775      	b.n	10582 <_dtoa_r+0x3aa>
   10696:	f8cd a028 	str.w	sl, [sp, #40]	; 0x28
   1069a:	464c      	mov	r4, r9
   1069c:	e792      	b.n	105c4 <_dtoa_r+0x3ec>
   1069e:	4b4d      	ldr	r3, [pc, #308]	; (107d4 <_dtoa_r+0x5fc>)
   106a0:	eb03 03c4 	add.w	r3, r3, r4, lsl #3
   106a4:	e953 0102 	ldrd	r0, r1, [r3, #-8]
   106a8:	9b03      	ldr	r3, [sp, #12]
   106aa:	441c      	add	r4, r3
   106ac:	9b0c      	ldr	r3, [sp, #48]	; 0x30
   106ae:	2b00      	cmp	r3, #0
   106b0:	d046      	beq.n	10740 <_dtoa_r+0x568>
   106b2:	4602      	mov	r2, r0
   106b4:	460b      	mov	r3, r1
   106b6:	2000      	movs	r0, #0
   106b8:	494c      	ldr	r1, [pc, #304]	; (107ec <_dtoa_r+0x614>)
   106ba:	f000 ffbb 	bl	11634 <__aeabi_ddiv>
   106be:	4632      	mov	r2, r6
   106c0:	463b      	mov	r3, r7
   106c2:	f000 fcd5 	bl	11070 <__aeabi_dsub>
   106c6:	9d03      	ldr	r5, [sp, #12]
   106c8:	4606      	mov	r6, r0
   106ca:	460f      	mov	r7, r1
   106cc:	e9dd 0100 	ldrd	r0, r1, [sp]
   106d0:	f002 fa76 	bl	12bc0 <__aeabi_d2iz>
   106d4:	9012      	str	r0, [sp, #72]	; 0x48
   106d6:	f000 fe19 	bl	1130c <__aeabi_i2d>
   106da:	4602      	mov	r2, r0
   106dc:	460b      	mov	r3, r1
   106de:	e9dd 0100 	ldrd	r0, r1, [sp]
   106e2:	f000 fcc5 	bl	11070 <__aeabi_dsub>
   106e6:	9b12      	ldr	r3, [sp, #72]	; 0x48
   106e8:	4632      	mov	r2, r6
   106ea:	3330      	adds	r3, #48	; 0x30
   106ec:	f805 3b01 	strb.w	r3, [r5], #1
   106f0:	463b      	mov	r3, r7
   106f2:	e9cd 0100 	strd	r0, r1, [sp]
   106f6:	f002 fa25 	bl	12b44 <__aeabi_dcmplt>
   106fa:	2800      	cmp	r0, #0
   106fc:	d15f      	bne.n	107be <_dtoa_r+0x5e6>
   106fe:	2000      	movs	r0, #0
   10700:	4936      	ldr	r1, [pc, #216]	; (107dc <_dtoa_r+0x604>)
   10702:	e9dd 2300 	ldrd	r2, r3, [sp]
   10706:	f000 fcb3 	bl	11070 <__aeabi_dsub>
   1070a:	4632      	mov	r2, r6
   1070c:	463b      	mov	r3, r7
   1070e:	f002 fa19 	bl	12b44 <__aeabi_dcmplt>
   10712:	2800      	cmp	r0, #0
   10714:	f040 80b2 	bne.w	1087c <_dtoa_r+0x6a4>
   10718:	42a5      	cmp	r5, r4
   1071a:	f43f af7c 	beq.w	10616 <_dtoa_r+0x43e>
   1071e:	2200      	movs	r2, #0
   10720:	4b2f      	ldr	r3, [pc, #188]	; (107e0 <_dtoa_r+0x608>)
   10722:	4630      	mov	r0, r6
   10724:	4639      	mov	r1, r7
   10726:	f000 fe5b 	bl	113e0 <__aeabi_dmul>
   1072a:	2200      	movs	r2, #0
   1072c:	4606      	mov	r6, r0
   1072e:	460f      	mov	r7, r1
   10730:	4b2b      	ldr	r3, [pc, #172]	; (107e0 <_dtoa_r+0x608>)
   10732:	e9dd 0100 	ldrd	r0, r1, [sp]
   10736:	f000 fe53 	bl	113e0 <__aeabi_dmul>
   1073a:	e9cd 0100 	strd	r0, r1, [sp]
   1073e:	e7c5      	b.n	106cc <_dtoa_r+0x4f4>
   10740:	4632      	mov	r2, r6
   10742:	463b      	mov	r3, r7
   10744:	f000 fe4c 	bl	113e0 <__aeabi_dmul>
   10748:	4625      	mov	r5, r4
   1074a:	9e03      	ldr	r6, [sp, #12]
   1074c:	e9cd 0112 	strd	r0, r1, [sp, #72]	; 0x48
   10750:	e9dd 0100 	ldrd	r0, r1, [sp]
   10754:	f002 fa34 	bl	12bc0 <__aeabi_d2iz>
   10758:	4607      	mov	r7, r0
   1075a:	f000 fdd7 	bl	1130c <__aeabi_i2d>
   1075e:	4602      	mov	r2, r0
   10760:	3730      	adds	r7, #48	; 0x30
   10762:	460b      	mov	r3, r1
   10764:	e9dd 0100 	ldrd	r0, r1, [sp]
   10768:	f000 fc82 	bl	11070 <__aeabi_dsub>
   1076c:	f806 7b01 	strb.w	r7, [r6], #1
   10770:	42a6      	cmp	r6, r4
   10772:	f04f 0200 	mov.w	r2, #0
   10776:	e9cd 0100 	strd	r0, r1, [sp]
   1077a:	d125      	bne.n	107c8 <_dtoa_r+0x5f0>
   1077c:	4b1b      	ldr	r3, [pc, #108]	; (107ec <_dtoa_r+0x614>)
   1077e:	e9dd 0112 	ldrd	r0, r1, [sp, #72]	; 0x48
   10782:	f000 fc77 	bl	11074 <__adddf3>
   10786:	4602      	mov	r2, r0
   10788:	460b      	mov	r3, r1
   1078a:	e9dd 0100 	ldrd	r0, r1, [sp]
   1078e:	f002 f9f7 	bl	12b80 <__aeabi_dcmpgt>
   10792:	2800      	cmp	r0, #0
   10794:	d172      	bne.n	1087c <_dtoa_r+0x6a4>
   10796:	2000      	movs	r0, #0
   10798:	4914      	ldr	r1, [pc, #80]	; (107ec <_dtoa_r+0x614>)
   1079a:	e9dd 2312 	ldrd	r2, r3, [sp, #72]	; 0x48
   1079e:	f000 fc67 	bl	11070 <__aeabi_dsub>
   107a2:	4602      	mov	r2, r0
   107a4:	460b      	mov	r3, r1
   107a6:	e9dd 0100 	ldrd	r0, r1, [sp]
   107aa:	f002 f9cb 	bl	12b44 <__aeabi_dcmplt>
   107ae:	2800      	cmp	r0, #0
   107b0:	f43f af31 	beq.w	10616 <_dtoa_r+0x43e>
   107b4:	f815 3c01 	ldrb.w	r3, [r5, #-1]
   107b8:	1e6a      	subs	r2, r5, #1
   107ba:	2b30      	cmp	r3, #48	; 0x30
   107bc:	d002      	beq.n	107c4 <_dtoa_r+0x5ec>
   107be:	f8dd a028 	ldr.w	sl, [sp, #40]	; 0x28
   107c2:	e049      	b.n	10858 <_dtoa_r+0x680>
   107c4:	4615      	mov	r5, r2
   107c6:	e7f5      	b.n	107b4 <_dtoa_r+0x5dc>
   107c8:	4b05      	ldr	r3, [pc, #20]	; (107e0 <_dtoa_r+0x608>)
   107ca:	f000 fe09 	bl	113e0 <__aeabi_dmul>
   107ce:	e9cd 0100 	strd	r0, r1, [sp]
   107d2:	e7bd      	b.n	10750 <_dtoa_r+0x578>
   107d4:	00013b00 	.word	0x00013b00
   107d8:	00013ad8 	.word	0x00013ad8
   107dc:	3ff00000 	.word	0x3ff00000
   107e0:	40240000 	.word	0x40240000
   107e4:	401c0000 	.word	0x401c0000
   107e8:	40140000 	.word	0x40140000
   107ec:	3fe00000 	.word	0x3fe00000
   107f0:	e9dd 6700 	ldrd	r6, r7, [sp]
   107f4:	9d03      	ldr	r5, [sp, #12]
   107f6:	4630      	mov	r0, r6
   107f8:	4639      	mov	r1, r7
   107fa:	e9dd 2304 	ldrd	r2, r3, [sp, #16]
   107fe:	f000 ff19 	bl	11634 <__aeabi_ddiv>
   10802:	f002 f9dd 	bl	12bc0 <__aeabi_d2iz>
   10806:	4604      	mov	r4, r0
   10808:	f000 fd80 	bl	1130c <__aeabi_i2d>
   1080c:	e9dd 2304 	ldrd	r2, r3, [sp, #16]
   10810:	f000 fde6 	bl	113e0 <__aeabi_dmul>
   10814:	4602      	mov	r2, r0
   10816:	4630      	mov	r0, r6
   10818:	f104 0630 	add.w	r6, r4, #48	; 0x30
   1081c:	460b      	mov	r3, r1
   1081e:	4639      	mov	r1, r7
   10820:	f000 fc26 	bl	11070 <__aeabi_dsub>
   10824:	f805 6b01 	strb.w	r6, [r5], #1
   10828:	9e03      	ldr	r6, [sp, #12]
   1082a:	4602      	mov	r2, r0
   1082c:	460b      	mov	r3, r1
   1082e:	1bae      	subs	r6, r5, r6
   10830:	45b1      	cmp	r9, r6
   10832:	d137      	bne.n	108a4 <_dtoa_r+0x6cc>
   10834:	f000 fc1e 	bl	11074 <__adddf3>
   10838:	4606      	mov	r6, r0
   1083a:	460f      	mov	r7, r1
   1083c:	e9dd 2304 	ldrd	r2, r3, [sp, #16]
   10840:	f002 f99e 	bl	12b80 <__aeabi_dcmpgt>
   10844:	b9c0      	cbnz	r0, 10878 <_dtoa_r+0x6a0>
   10846:	4630      	mov	r0, r6
   10848:	4639      	mov	r1, r7
   1084a:	e9dd 2304 	ldrd	r2, r3, [sp, #16]
   1084e:	f002 f96f 	bl	12b30 <__aeabi_dcmpeq>
   10852:	b108      	cbz	r0, 10858 <_dtoa_r+0x680>
   10854:	07e1      	lsls	r1, r4, #31
   10856:	d40f      	bmi.n	10878 <_dtoa_r+0x6a0>
   10858:	4641      	mov	r1, r8
   1085a:	4658      	mov	r0, fp
   1085c:	f002 fd5a 	bl	13314 <_Bfree>
   10860:	2300      	movs	r3, #0
   10862:	9a14      	ldr	r2, [sp, #80]	; 0x50
   10864:	702b      	strb	r3, [r5, #0]
   10866:	f10a 0301 	add.w	r3, sl, #1
   1086a:	6013      	str	r3, [r2, #0]
   1086c:	9b23      	ldr	r3, [sp, #140]	; 0x8c
   1086e:	2b00      	cmp	r3, #0
   10870:	f43f acfb 	beq.w	1026a <_dtoa_r+0x92>
   10874:	601d      	str	r5, [r3, #0]
   10876:	e4f8      	b.n	1026a <_dtoa_r+0x92>
   10878:	f8cd a028 	str.w	sl, [sp, #40]	; 0x28
   1087c:	f815 2c01 	ldrb.w	r2, [r5, #-1]
   10880:	1e6b      	subs	r3, r5, #1
   10882:	2a39      	cmp	r2, #57	; 0x39
   10884:	d108      	bne.n	10898 <_dtoa_r+0x6c0>
   10886:	9a03      	ldr	r2, [sp, #12]
   10888:	429a      	cmp	r2, r3
   1088a:	d109      	bne.n	108a0 <_dtoa_r+0x6c8>
   1088c:	9a0a      	ldr	r2, [sp, #40]	; 0x28
   1088e:	9903      	ldr	r1, [sp, #12]
   10890:	3201      	adds	r2, #1
   10892:	920a      	str	r2, [sp, #40]	; 0x28
   10894:	2230      	movs	r2, #48	; 0x30
   10896:	700a      	strb	r2, [r1, #0]
   10898:	781a      	ldrb	r2, [r3, #0]
   1089a:	3201      	adds	r2, #1
   1089c:	701a      	strb	r2, [r3, #0]
   1089e:	e78e      	b.n	107be <_dtoa_r+0x5e6>
   108a0:	461d      	mov	r5, r3
   108a2:	e7eb      	b.n	1087c <_dtoa_r+0x6a4>
   108a4:	2200      	movs	r2, #0
   108a6:	4b9d      	ldr	r3, [pc, #628]	; (10b1c <_dtoa_r+0x944>)
   108a8:	f000 fd9a 	bl	113e0 <__aeabi_dmul>
   108ac:	2200      	movs	r2, #0
   108ae:	2300      	movs	r3, #0
   108b0:	4606      	mov	r6, r0
   108b2:	460f      	mov	r7, r1
   108b4:	f002 f93c 	bl	12b30 <__aeabi_dcmpeq>
   108b8:	2800      	cmp	r0, #0
   108ba:	d09c      	beq.n	107f6 <_dtoa_r+0x61e>
   108bc:	e7cc      	b.n	10858 <_dtoa_r+0x680>
   108be:	9a0c      	ldr	r2, [sp, #48]	; 0x30
   108c0:	2a00      	cmp	r2, #0
   108c2:	f000 80cb 	beq.w	10a5c <_dtoa_r+0x884>
   108c6:	9a08      	ldr	r2, [sp, #32]
   108c8:	2a01      	cmp	r2, #1
   108ca:	f300 80ae 	bgt.w	10a2a <_dtoa_r+0x852>
   108ce:	9a15      	ldr	r2, [sp, #84]	; 0x54
   108d0:	2a00      	cmp	r2, #0
   108d2:	f000 80a6 	beq.w	10a22 <_dtoa_r+0x84a>
   108d6:	f203 4333 	addw	r3, r3, #1075	; 0x433
   108da:	9c09      	ldr	r4, [sp, #36]	; 0x24
   108dc:	9d06      	ldr	r5, [sp, #24]
   108de:	9a06      	ldr	r2, [sp, #24]
   108e0:	2101      	movs	r1, #1
   108e2:	4658      	mov	r0, fp
   108e4:	441a      	add	r2, r3
   108e6:	9206      	str	r2, [sp, #24]
   108e8:	9a07      	ldr	r2, [sp, #28]
   108ea:	441a      	add	r2, r3
   108ec:	9207      	str	r2, [sp, #28]
   108ee:	f002 fdb5 	bl	1345c <__i2b>
   108f2:	4606      	mov	r6, r0
   108f4:	2d00      	cmp	r5, #0
   108f6:	dd0c      	ble.n	10912 <_dtoa_r+0x73a>
   108f8:	9b07      	ldr	r3, [sp, #28]
   108fa:	2b00      	cmp	r3, #0
   108fc:	dd09      	ble.n	10912 <_dtoa_r+0x73a>
   108fe:	42ab      	cmp	r3, r5
   10900:	9a06      	ldr	r2, [sp, #24]
   10902:	bfa8      	it	ge
   10904:	462b      	movge	r3, r5
   10906:	1ad2      	subs	r2, r2, r3
   10908:	1aed      	subs	r5, r5, r3
   1090a:	9206      	str	r2, [sp, #24]
   1090c:	9a07      	ldr	r2, [sp, #28]
   1090e:	1ad3      	subs	r3, r2, r3
   10910:	9307      	str	r3, [sp, #28]
   10912:	9b09      	ldr	r3, [sp, #36]	; 0x24
   10914:	b1f3      	cbz	r3, 10954 <_dtoa_r+0x77c>
   10916:	9b0c      	ldr	r3, [sp, #48]	; 0x30
   10918:	2b00      	cmp	r3, #0
   1091a:	f000 80a3 	beq.w	10a64 <_dtoa_r+0x88c>
   1091e:	2c00      	cmp	r4, #0
   10920:	dd10      	ble.n	10944 <_dtoa_r+0x76c>
   10922:	4631      	mov	r1, r6
   10924:	4622      	mov	r2, r4
   10926:	4658      	mov	r0, fp
   10928:	f001 fc8a 	bl	12240 <__pow5mult>
   1092c:	4642      	mov	r2, r8
   1092e:	4601      	mov	r1, r0
   10930:	4606      	mov	r6, r0
   10932:	4658      	mov	r0, fp
   10934:	f002 fd9b 	bl	1346e <__multiply>
   10938:	4607      	mov	r7, r0
   1093a:	4641      	mov	r1, r8
   1093c:	4658      	mov	r0, fp
   1093e:	46b8      	mov	r8, r7
   10940:	f002 fce8 	bl	13314 <_Bfree>
   10944:	9b09      	ldr	r3, [sp, #36]	; 0x24
   10946:	1b1a      	subs	r2, r3, r4
   10948:	d004      	beq.n	10954 <_dtoa_r+0x77c>
   1094a:	4641      	mov	r1, r8
   1094c:	4658      	mov	r0, fp
   1094e:	f001 fc77 	bl	12240 <__pow5mult>
   10952:	4680      	mov	r8, r0
   10954:	2101      	movs	r1, #1
   10956:	4658      	mov	r0, fp
   10958:	f002 fd80 	bl	1345c <__i2b>
   1095c:	9b10      	ldr	r3, [sp, #64]	; 0x40
   1095e:	4604      	mov	r4, r0
   10960:	2b00      	cmp	r3, #0
   10962:	f340 8081 	ble.w	10a68 <_dtoa_r+0x890>
   10966:	461a      	mov	r2, r3
   10968:	4601      	mov	r1, r0
   1096a:	4658      	mov	r0, fp
   1096c:	f001 fc68 	bl	12240 <__pow5mult>
   10970:	9b08      	ldr	r3, [sp, #32]
   10972:	4604      	mov	r4, r0
   10974:	2b01      	cmp	r3, #1
   10976:	dd7a      	ble.n	10a6e <_dtoa_r+0x896>
   10978:	2700      	movs	r7, #0
   1097a:	6923      	ldr	r3, [r4, #16]
   1097c:	eb04 0383 	add.w	r3, r4, r3, lsl #2
   10980:	6918      	ldr	r0, [r3, #16]
   10982:	f002 fd1b 	bl	133bc <__hi0bits>
   10986:	f1c0 0020 	rsb	r0, r0, #32
   1098a:	9b07      	ldr	r3, [sp, #28]
   1098c:	4418      	add	r0, r3
   1098e:	f010 001f 	ands.w	r0, r0, #31
   10992:	f000 808b 	beq.w	10aac <_dtoa_r+0x8d4>
   10996:	f1c0 0320 	rsb	r3, r0, #32
   1099a:	2b04      	cmp	r3, #4
   1099c:	f340 8084 	ble.w	10aa8 <_dtoa_r+0x8d0>
   109a0:	f1c0 001c 	rsb	r0, r0, #28
   109a4:	9b06      	ldr	r3, [sp, #24]
   109a6:	4405      	add	r5, r0
   109a8:	4403      	add	r3, r0
   109aa:	9306      	str	r3, [sp, #24]
   109ac:	9b07      	ldr	r3, [sp, #28]
   109ae:	4403      	add	r3, r0
   109b0:	9307      	str	r3, [sp, #28]
   109b2:	9b06      	ldr	r3, [sp, #24]
   109b4:	2b00      	cmp	r3, #0
   109b6:	dd05      	ble.n	109c4 <_dtoa_r+0x7ec>
   109b8:	4641      	mov	r1, r8
   109ba:	461a      	mov	r2, r3
   109bc:	4658      	mov	r0, fp
   109be:	f002 fde5 	bl	1358c <__lshift>
   109c2:	4680      	mov	r8, r0
   109c4:	9b07      	ldr	r3, [sp, #28]
   109c6:	2b00      	cmp	r3, #0
   109c8:	dd05      	ble.n	109d6 <_dtoa_r+0x7fe>
   109ca:	4621      	mov	r1, r4
   109cc:	461a      	mov	r2, r3
   109ce:	4658      	mov	r0, fp
   109d0:	f002 fddc 	bl	1358c <__lshift>
   109d4:	4604      	mov	r4, r0
   109d6:	9b11      	ldr	r3, [sp, #68]	; 0x44
   109d8:	2b00      	cmp	r3, #0
   109da:	d069      	beq.n	10ab0 <_dtoa_r+0x8d8>
   109dc:	4621      	mov	r1, r4
   109de:	4640      	mov	r0, r8
   109e0:	f002 fe27 	bl	13632 <__mcmp>
   109e4:	2800      	cmp	r0, #0
   109e6:	da63      	bge.n	10ab0 <_dtoa_r+0x8d8>
   109e8:	2300      	movs	r3, #0
   109ea:	4641      	mov	r1, r8
   109ec:	220a      	movs	r2, #10
   109ee:	4658      	mov	r0, fp
   109f0:	f002 fca7 	bl	13342 <__multadd>
   109f4:	9b0c      	ldr	r3, [sp, #48]	; 0x30
   109f6:	f10a 3aff 	add.w	sl, sl, #4294967295
   109fa:	4680      	mov	r8, r0
   109fc:	2b00      	cmp	r3, #0
   109fe:	f000 8179 	beq.w	10cf4 <_dtoa_r+0xb1c>
   10a02:	2300      	movs	r3, #0
   10a04:	4631      	mov	r1, r6
   10a06:	220a      	movs	r2, #10
   10a08:	4658      	mov	r0, fp
   10a0a:	f002 fc9a 	bl	13342 <__multadd>
   10a0e:	9b04      	ldr	r3, [sp, #16]
   10a10:	4606      	mov	r6, r0
   10a12:	2b00      	cmp	r3, #0
   10a14:	f300 808a 	bgt.w	10b2c <_dtoa_r+0x954>
   10a18:	9b08      	ldr	r3, [sp, #32]
   10a1a:	2b02      	cmp	r3, #2
   10a1c:	f340 8086 	ble.w	10b2c <_dtoa_r+0x954>
   10a20:	e04e      	b.n	10ac0 <_dtoa_r+0x8e8>
   10a22:	9b16      	ldr	r3, [sp, #88]	; 0x58
   10a24:	f1c3 0336 	rsb	r3, r3, #54	; 0x36
   10a28:	e757      	b.n	108da <_dtoa_r+0x702>
   10a2a:	9b09      	ldr	r3, [sp, #36]	; 0x24
   10a2c:	f109 34ff 	add.w	r4, r9, #4294967295
   10a30:	42a3      	cmp	r3, r4
   10a32:	bfb7      	itett	lt
   10a34:	9b09      	ldrlt	r3, [sp, #36]	; 0x24
   10a36:	1b1c      	subge	r4, r3, r4
   10a38:	9409      	strlt	r4, [sp, #36]	; 0x24
   10a3a:	1ae2      	sublt	r2, r4, r3
   10a3c:	bfbf      	itttt	lt
   10a3e:	9b10      	ldrlt	r3, [sp, #64]	; 0x40
   10a40:	2400      	movlt	r4, #0
   10a42:	189b      	addlt	r3, r3, r2
   10a44:	9310      	strlt	r3, [sp, #64]	; 0x40
   10a46:	f1b9 0f00 	cmp.w	r9, #0
   10a4a:	bfb3      	iteet	lt
   10a4c:	9b06      	ldrlt	r3, [sp, #24]
   10a4e:	464b      	movge	r3, r9
   10a50:	9d06      	ldrge	r5, [sp, #24]
   10a52:	eba3 0509 	sublt.w	r5, r3, r9
   10a56:	bfb8      	it	lt
   10a58:	2300      	movlt	r3, #0
   10a5a:	e740      	b.n	108de <_dtoa_r+0x706>
   10a5c:	9c09      	ldr	r4, [sp, #36]	; 0x24
   10a5e:	9d06      	ldr	r5, [sp, #24]
   10a60:	9e0c      	ldr	r6, [sp, #48]	; 0x30
   10a62:	e747      	b.n	108f4 <_dtoa_r+0x71c>
   10a64:	9a09      	ldr	r2, [sp, #36]	; 0x24
   10a66:	e770      	b.n	1094a <_dtoa_r+0x772>
   10a68:	9b08      	ldr	r3, [sp, #32]
   10a6a:	2b01      	cmp	r3, #1
   10a6c:	dc18      	bgt.n	10aa0 <_dtoa_r+0x8c8>
   10a6e:	9b00      	ldr	r3, [sp, #0]
   10a70:	b9b3      	cbnz	r3, 10aa0 <_dtoa_r+0x8c8>
   10a72:	9b01      	ldr	r3, [sp, #4]
   10a74:	f3c3 0313 	ubfx	r3, r3, #0, #20
   10a78:	b9a3      	cbnz	r3, 10aa4 <_dtoa_r+0x8cc>
   10a7a:	9b01      	ldr	r3, [sp, #4]
   10a7c:	f023 4700 	bic.w	r7, r3, #2147483648	; 0x80000000
   10a80:	0d3f      	lsrs	r7, r7, #20
   10a82:	053f      	lsls	r7, r7, #20
   10a84:	b137      	cbz	r7, 10a94 <_dtoa_r+0x8bc>
   10a86:	9b06      	ldr	r3, [sp, #24]
   10a88:	2701      	movs	r7, #1
   10a8a:	3301      	adds	r3, #1
   10a8c:	9306      	str	r3, [sp, #24]
   10a8e:	9b07      	ldr	r3, [sp, #28]
   10a90:	3301      	adds	r3, #1
   10a92:	9307      	str	r3, [sp, #28]
   10a94:	9b10      	ldr	r3, [sp, #64]	; 0x40
   10a96:	2b00      	cmp	r3, #0
   10a98:	f47f af6f 	bne.w	1097a <_dtoa_r+0x7a2>
   10a9c:	2001      	movs	r0, #1
   10a9e:	e774      	b.n	1098a <_dtoa_r+0x7b2>
   10aa0:	2700      	movs	r7, #0
   10aa2:	e7f7      	b.n	10a94 <_dtoa_r+0x8bc>
   10aa4:	9f00      	ldr	r7, [sp, #0]
   10aa6:	e7f5      	b.n	10a94 <_dtoa_r+0x8bc>
   10aa8:	d083      	beq.n	109b2 <_dtoa_r+0x7da>
   10aaa:	4618      	mov	r0, r3
   10aac:	301c      	adds	r0, #28
   10aae:	e779      	b.n	109a4 <_dtoa_r+0x7cc>
   10ab0:	f1b9 0f00 	cmp.w	r9, #0
   10ab4:	dc34      	bgt.n	10b20 <_dtoa_r+0x948>
   10ab6:	9b08      	ldr	r3, [sp, #32]
   10ab8:	2b02      	cmp	r3, #2
   10aba:	dd31      	ble.n	10b20 <_dtoa_r+0x948>
   10abc:	f8cd 9010 	str.w	r9, [sp, #16]
   10ac0:	9b04      	ldr	r3, [sp, #16]
   10ac2:	b963      	cbnz	r3, 10ade <_dtoa_r+0x906>
   10ac4:	4621      	mov	r1, r4
   10ac6:	2205      	movs	r2, #5
   10ac8:	4658      	mov	r0, fp
   10aca:	f002 fc3a 	bl	13342 <__multadd>
   10ace:	4601      	mov	r1, r0
   10ad0:	4604      	mov	r4, r0
   10ad2:	4640      	mov	r0, r8
   10ad4:	f002 fdad 	bl	13632 <__mcmp>
   10ad8:	2800      	cmp	r0, #0
   10ada:	f73f adc8 	bgt.w	1066e <_dtoa_r+0x496>
   10ade:	9b0d      	ldr	r3, [sp, #52]	; 0x34
   10ae0:	9d03      	ldr	r5, [sp, #12]
   10ae2:	ea6f 0a03 	mvn.w	sl, r3
   10ae6:	2700      	movs	r7, #0
   10ae8:	4621      	mov	r1, r4
   10aea:	4658      	mov	r0, fp
   10aec:	f002 fc12 	bl	13314 <_Bfree>
   10af0:	2e00      	cmp	r6, #0
   10af2:	f43f aeb1 	beq.w	10858 <_dtoa_r+0x680>
   10af6:	b12f      	cbz	r7, 10b04 <_dtoa_r+0x92c>
   10af8:	42b7      	cmp	r7, r6
   10afa:	d003      	beq.n	10b04 <_dtoa_r+0x92c>
   10afc:	4639      	mov	r1, r7
   10afe:	4658      	mov	r0, fp
   10b00:	f002 fc08 	bl	13314 <_Bfree>
   10b04:	4631      	mov	r1, r6
   10b06:	4658      	mov	r0, fp
   10b08:	f002 fc04 	bl	13314 <_Bfree>
   10b0c:	e6a4      	b.n	10858 <_dtoa_r+0x680>
   10b0e:	2400      	movs	r4, #0
   10b10:	4626      	mov	r6, r4
   10b12:	e7e4      	b.n	10ade <_dtoa_r+0x906>
   10b14:	f8dd a028 	ldr.w	sl, [sp, #40]	; 0x28
   10b18:	4626      	mov	r6, r4
   10b1a:	e5a8      	b.n	1066e <_dtoa_r+0x496>
   10b1c:	40240000 	.word	0x40240000
   10b20:	9b0c      	ldr	r3, [sp, #48]	; 0x30
   10b22:	f8cd 9010 	str.w	r9, [sp, #16]
   10b26:	2b00      	cmp	r3, #0
   10b28:	f000 80eb 	beq.w	10d02 <_dtoa_r+0xb2a>
   10b2c:	2d00      	cmp	r5, #0
   10b2e:	dd05      	ble.n	10b3c <_dtoa_r+0x964>
   10b30:	4631      	mov	r1, r6
   10b32:	462a      	mov	r2, r5
   10b34:	4658      	mov	r0, fp
   10b36:	f002 fd29 	bl	1358c <__lshift>
   10b3a:	4606      	mov	r6, r0
   10b3c:	2f00      	cmp	r7, #0
   10b3e:	d056      	beq.n	10bee <_dtoa_r+0xa16>
   10b40:	6871      	ldr	r1, [r6, #4]
   10b42:	4658      	mov	r0, fp
   10b44:	f002 fbb2 	bl	132ac <_Balloc>
   10b48:	6932      	ldr	r2, [r6, #16]
   10b4a:	4605      	mov	r5, r0
   10b4c:	f106 010c 	add.w	r1, r6, #12
   10b50:	3202      	adds	r2, #2
   10b52:	300c      	adds	r0, #12
   10b54:	0092      	lsls	r2, r2, #2
   10b56:	f002 f960 	bl	12e1a <memcpy>
   10b5a:	2201      	movs	r2, #1
   10b5c:	4629      	mov	r1, r5
   10b5e:	4658      	mov	r0, fp
   10b60:	f002 fd14 	bl	1358c <__lshift>
   10b64:	9b03      	ldr	r3, [sp, #12]
   10b66:	4637      	mov	r7, r6
   10b68:	4606      	mov	r6, r0
   10b6a:	f103 0901 	add.w	r9, r3, #1
   10b6e:	e9dd 2303 	ldrd	r2, r3, [sp, #12]
   10b72:	4413      	add	r3, r2
   10b74:	9309      	str	r3, [sp, #36]	; 0x24
   10b76:	9b00      	ldr	r3, [sp, #0]
   10b78:	f003 0301 	and.w	r3, r3, #1
   10b7c:	9307      	str	r3, [sp, #28]
   10b7e:	f109 33ff 	add.w	r3, r9, #4294967295
   10b82:	4621      	mov	r1, r4
   10b84:	4640      	mov	r0, r8
   10b86:	9300      	str	r3, [sp, #0]
   10b88:	f002 fabd 	bl	13106 <quorem>
   10b8c:	4603      	mov	r3, r0
   10b8e:	9004      	str	r0, [sp, #16]
   10b90:	4639      	mov	r1, r7
   10b92:	4640      	mov	r0, r8
   10b94:	3330      	adds	r3, #48	; 0x30
   10b96:	930a      	str	r3, [sp, #40]	; 0x28
   10b98:	f002 fd4b 	bl	13632 <__mcmp>
   10b9c:	4632      	mov	r2, r6
   10b9e:	9006      	str	r0, [sp, #24]
   10ba0:	4621      	mov	r1, r4
   10ba2:	4658      	mov	r0, fp
   10ba4:	f002 fd5f 	bl	13666 <__mdiff>
   10ba8:	68c2      	ldr	r2, [r0, #12]
   10baa:	4605      	mov	r5, r0
   10bac:	9b0a      	ldr	r3, [sp, #40]	; 0x28
   10bae:	bb02      	cbnz	r2, 10bf2 <_dtoa_r+0xa1a>
   10bb0:	4601      	mov	r1, r0
   10bb2:	4640      	mov	r0, r8
   10bb4:	f002 fd3d 	bl	13632 <__mcmp>
   10bb8:	9b0a      	ldr	r3, [sp, #40]	; 0x28
   10bba:	4602      	mov	r2, r0
   10bbc:	4629      	mov	r1, r5
   10bbe:	4658      	mov	r0, fp
   10bc0:	920c      	str	r2, [sp, #48]	; 0x30
   10bc2:	464d      	mov	r5, r9
   10bc4:	930a      	str	r3, [sp, #40]	; 0x28
   10bc6:	f002 fba5 	bl	13314 <_Bfree>
   10bca:	9b08      	ldr	r3, [sp, #32]
   10bcc:	9a0c      	ldr	r2, [sp, #48]	; 0x30
   10bce:	ea43 0102 	orr.w	r1, r3, r2
   10bd2:	9b07      	ldr	r3, [sp, #28]
   10bd4:	430b      	orrs	r3, r1
   10bd6:	9b0a      	ldr	r3, [sp, #40]	; 0x28
   10bd8:	d10d      	bne.n	10bf6 <_dtoa_r+0xa1e>
   10bda:	2b39      	cmp	r3, #57	; 0x39
   10bdc:	d027      	beq.n	10c2e <_dtoa_r+0xa56>
   10bde:	9a06      	ldr	r2, [sp, #24]
   10be0:	2a00      	cmp	r2, #0
   10be2:	dd01      	ble.n	10be8 <_dtoa_r+0xa10>
   10be4:	9b04      	ldr	r3, [sp, #16]
   10be6:	3331      	adds	r3, #49	; 0x31
   10be8:	9a00      	ldr	r2, [sp, #0]
   10bea:	7013      	strb	r3, [r2, #0]
   10bec:	e77c      	b.n	10ae8 <_dtoa_r+0x910>
   10bee:	4630      	mov	r0, r6
   10bf0:	e7b8      	b.n	10b64 <_dtoa_r+0x98c>
   10bf2:	2201      	movs	r2, #1
   10bf4:	e7e2      	b.n	10bbc <_dtoa_r+0x9e4>
   10bf6:	9906      	ldr	r1, [sp, #24]
   10bf8:	2900      	cmp	r1, #0
   10bfa:	db04      	blt.n	10c06 <_dtoa_r+0xa2e>
   10bfc:	9808      	ldr	r0, [sp, #32]
   10bfe:	4301      	orrs	r1, r0
   10c00:	9807      	ldr	r0, [sp, #28]
   10c02:	4301      	orrs	r1, r0
   10c04:	d11d      	bne.n	10c42 <_dtoa_r+0xa6a>
   10c06:	2a00      	cmp	r2, #0
   10c08:	ddee      	ble.n	10be8 <_dtoa_r+0xa10>
   10c0a:	4641      	mov	r1, r8
   10c0c:	2201      	movs	r2, #1
   10c0e:	4658      	mov	r0, fp
   10c10:	9306      	str	r3, [sp, #24]
   10c12:	f002 fcbb 	bl	1358c <__lshift>
   10c16:	4621      	mov	r1, r4
   10c18:	4680      	mov	r8, r0
   10c1a:	f002 fd0a 	bl	13632 <__mcmp>
   10c1e:	2800      	cmp	r0, #0
   10c20:	9b06      	ldr	r3, [sp, #24]
   10c22:	dc02      	bgt.n	10c2a <_dtoa_r+0xa52>
   10c24:	d1e0      	bne.n	10be8 <_dtoa_r+0xa10>
   10c26:	07da      	lsls	r2, r3, #31
   10c28:	d5de      	bpl.n	10be8 <_dtoa_r+0xa10>
   10c2a:	2b39      	cmp	r3, #57	; 0x39
   10c2c:	d1da      	bne.n	10be4 <_dtoa_r+0xa0c>
   10c2e:	2339      	movs	r3, #57	; 0x39
   10c30:	9a00      	ldr	r2, [sp, #0]
   10c32:	7013      	strb	r3, [r2, #0]
   10c34:	f815 3c01 	ldrb.w	r3, [r5, #-1]
   10c38:	1e6a      	subs	r2, r5, #1
   10c3a:	2b39      	cmp	r3, #57	; 0x39
   10c3c:	d046      	beq.n	10ccc <_dtoa_r+0xaf4>
   10c3e:	3301      	adds	r3, #1
   10c40:	e7d3      	b.n	10bea <_dtoa_r+0xa12>
   10c42:	2a00      	cmp	r2, #0
   10c44:	dd03      	ble.n	10c4e <_dtoa_r+0xa76>
   10c46:	2b39      	cmp	r3, #57	; 0x39
   10c48:	d0f1      	beq.n	10c2e <_dtoa_r+0xa56>
   10c4a:	3301      	adds	r3, #1
   10c4c:	e7cc      	b.n	10be8 <_dtoa_r+0xa10>
   10c4e:	9a09      	ldr	r2, [sp, #36]	; 0x24
   10c50:	f809 3c01 	strb.w	r3, [r9, #-1]
   10c54:	4591      	cmp	r9, r2
   10c56:	d021      	beq.n	10c9c <_dtoa_r+0xac4>
   10c58:	4641      	mov	r1, r8
   10c5a:	2300      	movs	r3, #0
   10c5c:	220a      	movs	r2, #10
   10c5e:	4658      	mov	r0, fp
   10c60:	f002 fb6f 	bl	13342 <__multadd>
   10c64:	42b7      	cmp	r7, r6
   10c66:	4680      	mov	r8, r0
   10c68:	f04f 0300 	mov.w	r3, #0
   10c6c:	f04f 020a 	mov.w	r2, #10
   10c70:	4639      	mov	r1, r7
   10c72:	4658      	mov	r0, fp
   10c74:	d106      	bne.n	10c84 <_dtoa_r+0xaac>
   10c76:	f002 fb64 	bl	13342 <__multadd>
   10c7a:	4607      	mov	r7, r0
   10c7c:	4606      	mov	r6, r0
   10c7e:	f109 0901 	add.w	r9, r9, #1
   10c82:	e77c      	b.n	10b7e <_dtoa_r+0x9a6>
   10c84:	f002 fb5d 	bl	13342 <__multadd>
   10c88:	4631      	mov	r1, r6
   10c8a:	4607      	mov	r7, r0
   10c8c:	2300      	movs	r3, #0
   10c8e:	220a      	movs	r2, #10
   10c90:	4658      	mov	r0, fp
   10c92:	f002 fb56 	bl	13342 <__multadd>
   10c96:	4606      	mov	r6, r0
   10c98:	e7f1      	b.n	10c7e <_dtoa_r+0xaa6>
   10c9a:	2700      	movs	r7, #0
   10c9c:	4641      	mov	r1, r8
   10c9e:	2201      	movs	r2, #1
   10ca0:	4658      	mov	r0, fp
   10ca2:	9300      	str	r3, [sp, #0]
   10ca4:	f002 fc72 	bl	1358c <__lshift>
   10ca8:	4621      	mov	r1, r4
   10caa:	4680      	mov	r8, r0
   10cac:	f002 fcc1 	bl	13632 <__mcmp>
   10cb0:	2800      	cmp	r0, #0
   10cb2:	dcbf      	bgt.n	10c34 <_dtoa_r+0xa5c>
   10cb4:	d102      	bne.n	10cbc <_dtoa_r+0xae4>
   10cb6:	9b00      	ldr	r3, [sp, #0]
   10cb8:	07db      	lsls	r3, r3, #31
   10cba:	d4bb      	bmi.n	10c34 <_dtoa_r+0xa5c>
   10cbc:	f815 3c01 	ldrb.w	r3, [r5, #-1]
   10cc0:	1e6a      	subs	r2, r5, #1
   10cc2:	2b30      	cmp	r3, #48	; 0x30
   10cc4:	f47f af10 	bne.w	10ae8 <_dtoa_r+0x910>
   10cc8:	4615      	mov	r5, r2
   10cca:	e7f7      	b.n	10cbc <_dtoa_r+0xae4>
   10ccc:	9b03      	ldr	r3, [sp, #12]
   10cce:	4293      	cmp	r3, r2
   10cd0:	d104      	bne.n	10cdc <_dtoa_r+0xb04>
   10cd2:	f10a 0a01 	add.w	sl, sl, #1
   10cd6:	2331      	movs	r3, #49	; 0x31
   10cd8:	9a03      	ldr	r2, [sp, #12]
   10cda:	e786      	b.n	10bea <_dtoa_r+0xa12>
   10cdc:	4615      	mov	r5, r2
   10cde:	e7a9      	b.n	10c34 <_dtoa_r+0xa5c>
   10ce0:	4b13      	ldr	r3, [pc, #76]	; (10d30 <_dtoa_r+0xb58>)
   10ce2:	f7ff bae1 	b.w	102a8 <_dtoa_r+0xd0>
   10ce6:	9b23      	ldr	r3, [sp, #140]	; 0x8c
   10ce8:	2b00      	cmp	r3, #0
   10cea:	f47f aab9 	bne.w	10260 <_dtoa_r+0x88>
   10cee:	4b11      	ldr	r3, [pc, #68]	; (10d34 <_dtoa_r+0xb5c>)
   10cf0:	f7ff bada 	b.w	102a8 <_dtoa_r+0xd0>
   10cf4:	9b04      	ldr	r3, [sp, #16]
   10cf6:	2b00      	cmp	r3, #0
   10cf8:	dc03      	bgt.n	10d02 <_dtoa_r+0xb2a>
   10cfa:	9b08      	ldr	r3, [sp, #32]
   10cfc:	2b02      	cmp	r3, #2
   10cfe:	f73f aedf 	bgt.w	10ac0 <_dtoa_r+0x8e8>
   10d02:	9d03      	ldr	r5, [sp, #12]
   10d04:	4621      	mov	r1, r4
   10d06:	4640      	mov	r0, r8
   10d08:	f002 f9fd 	bl	13106 <quorem>
   10d0c:	9a03      	ldr	r2, [sp, #12]
   10d0e:	f100 0330 	add.w	r3, r0, #48	; 0x30
   10d12:	9904      	ldr	r1, [sp, #16]
   10d14:	f805 3b01 	strb.w	r3, [r5], #1
   10d18:	1aaa      	subs	r2, r5, r2
   10d1a:	4291      	cmp	r1, r2
   10d1c:	ddbd      	ble.n	10c9a <_dtoa_r+0xac2>
   10d1e:	4641      	mov	r1, r8
   10d20:	2300      	movs	r3, #0
   10d22:	220a      	movs	r2, #10
   10d24:	4658      	mov	r0, fp
   10d26:	f002 fb0c 	bl	13342 <__multadd>
   10d2a:	4680      	mov	r8, r0
   10d2c:	e7ea      	b.n	10d04 <_dtoa_r+0xb2c>
   10d2e:	bf00      	nop
   10d30:	00014148 	.word	0x00014148
   10d34:	0001416c 	.word	0x0001416c

00010d38 <__assert_func>:
   10d38:	b580      	push	{r7, lr}
   10d3a:	b086      	sub	sp, #24
   10d3c:	af02      	add	r7, sp, #8
   10d3e:	60f8      	str	r0, [r7, #12]
   10d40:	60b9      	str	r1, [r7, #8]
   10d42:	607a      	str	r2, [r7, #4]
   10d44:	603b      	str	r3, [r7, #0]
   10d46:	687b      	ldr	r3, [r7, #4]
   10d48:	9300      	str	r3, [sp, #0]
   10d4a:	68bb      	ldr	r3, [r7, #8]
   10d4c:	68fa      	ldr	r2, [r7, #12]
   10d4e:	6839      	ldr	r1, [r7, #0]
   10d50:	4802      	ldr	r0, [pc, #8]	; (10d5c <__assert_func+0x24>)
   10d52:	f001 f949 	bl	11fe8 <iprintf>
   10d56:	be00      	bkpt	0x0000
   10d58:	e7fd      	b.n	10d56 <__assert_func+0x1e>
   10d5a:	bf00      	nop
   10d5c:	00013bc8 	.word	0x00013bc8

00010d60 <ATSch>:
   10d60:	b580      	push	{r7, lr}
   10d62:	b08a      	sub	sp, #40	; 0x28
   10d64:	af00      	add	r7, sp, #0
   10d66:	6078      	str	r0, [r7, #4]
   10d68:	2300      	movs	r3, #0
   10d6a:	f887 3027 	strb.w	r3, [r7, #39]	; 0x27
   10d6e:	2300      	movs	r3, #0
   10d70:	f887 3026 	strb.w	r3, [r7, #38]	; 0x26
   10d74:	2300      	movs	r3, #0
   10d76:	f887 3025 	strb.w	r3, [r7, #37]	; 0x25
   10d7a:	2300      	movs	r3, #0
   10d7c:	623b      	str	r3, [r7, #32]
   10d7e:	2300      	movs	r3, #0
   10d80:	61fb      	str	r3, [r7, #28]
   10d82:	2300      	movs	r3, #0
   10d84:	61bb      	str	r3, [r7, #24]
   10d86:	2300      	movs	r3, #0
   10d88:	f887 3024 	strb.w	r3, [r7, #36]	; 0x24
   10d8c:	2300      	movs	r3, #0
   10d8e:	82bb      	strh	r3, [r7, #20]
   10d90:	f107 030c 	add.w	r3, r7, #12
   10d94:	2200      	movs	r2, #0
   10d96:	601a      	str	r2, [r3, #0]
   10d98:	605a      	str	r2, [r3, #4]
   10d9a:	f002 fe95 	bl	13ac8 <__app_GPS_recv_s_veneer>
   10d9e:	f107 020c 	add.w	r2, r7, #12
   10da2:	f107 0314 	add.w	r3, r7, #20
   10da6:	4611      	mov	r1, r2
   10da8:	4618      	mov	r0, r3
   10daa:	f002 fe85 	bl	13ab8 <__upload_construct_veneer>
   10dae:	7d3b      	ldrb	r3, [r7, #20]
   10db0:	2b01      	cmp	r3, #1
   10db2:	d906      	bls.n	10dc2 <ATSch+0x62>
   10db4:	68fb      	ldr	r3, [r7, #12]
   10db6:	2b01      	cmp	r3, #1
   10db8:	d903      	bls.n	10dc2 <ATSch+0x62>
   10dba:	4805      	ldr	r0, [pc, #20]	; (10dd0 <ATSch+0x70>)
   10dbc:	f002 fe6c 	bl	13a98 <__DbgConsole_Printf_NSE_veneer>
   10dc0:	e002      	b.n	10dc8 <ATSch+0x68>
   10dc2:	4804      	ldr	r0, [pc, #16]	; (10dd4 <ATSch+0x74>)
   10dc4:	f002 fe68 	bl	13a98 <__DbgConsole_Printf_NSE_veneer>
   10dc8:	bf00      	nop
   10dca:	3728      	adds	r7, #40	; 0x28
   10dcc:	46bd      	mov	sp, r7
   10dce:	bd80      	pop	{r7, pc}
   10dd0:	00013e88 	.word	0x00013e88
   10dd4:	00013e90 	.word	0x00013e90

00010dd8 <main>:
   10dd8:	b580      	push	{r7, lr}
   10dda:	b082      	sub	sp, #8
   10ddc:	af00      	add	r7, sp, #0
   10dde:	4806      	ldr	r0, [pc, #24]	; (10df8 <main+0x20>)
   10de0:	f002 fe5a 	bl	13a98 <__DbgConsole_Printf_NSE_veneer>
   10de4:	2301      	movs	r3, #1
   10de6:	607b      	str	r3, [r7, #4]
   10de8:	1d3b      	adds	r3, r7, #4
   10dea:	4618      	mov	r0, r3
   10dec:	f002 fe5c 	bl	13aa8 <__printdd_veneer>
   10df0:	f002 f804 	bl	12dfc <AppNBIOTInit>
   10df4:	e7fc      	b.n	10df0 <main+0x18>
   10df6:	bf00      	nop
   10df8:	00013eb4 	.word	0x00013eb4

00010dfc <FLEXCOMM0_DriverIRQHandler>:
   10dfc:	b580      	push	{r7, lr}
   10dfe:	af00      	add	r7, sp, #0
   10e00:	4b09      	ldr	r3, [pc, #36]	; (10e28 <FLEXCOMM0_DriverIRQHandler+0x2c>)
   10e02:	681b      	ldr	r3, [r3, #0]
   10e04:	2b00      	cmp	r3, #0
   10e06:	d105      	bne.n	10e14 <FLEXCOMM0_DriverIRQHandler+0x18>
   10e08:	4b08      	ldr	r3, [pc, #32]	; (10e2c <FLEXCOMM0_DriverIRQHandler+0x30>)
   10e0a:	4a09      	ldr	r2, [pc, #36]	; (10e30 <FLEXCOMM0_DriverIRQHandler+0x34>)
   10e0c:	21af      	movs	r1, #175	; 0xaf
   10e0e:	4809      	ldr	r0, [pc, #36]	; (10e34 <FLEXCOMM0_DriverIRQHandler+0x38>)
   10e10:	f7ff ff92 	bl	10d38 <__assert_func>
   10e14:	4b04      	ldr	r3, [pc, #16]	; (10e28 <FLEXCOMM0_DriverIRQHandler+0x2c>)
   10e16:	681b      	ldr	r3, [r3, #0]
   10e18:	4a07      	ldr	r2, [pc, #28]	; (10e38 <FLEXCOMM0_DriverIRQHandler+0x3c>)
   10e1a:	4610      	mov	r0, r2
   10e1c:	4a07      	ldr	r2, [pc, #28]	; (10e3c <FLEXCOMM0_DriverIRQHandler+0x40>)
   10e1e:	6812      	ldr	r2, [r2, #0]
   10e20:	4611      	mov	r1, r2
   10e22:	4798      	blx	r3
   10e24:	bf00      	nop
   10e26:	bd80      	pop	{r7, pc}
   10e28:	200301d0 	.word	0x200301d0
   10e2c:	00013ef4 	.word	0x00013ef4
   10e30:	00013fcc 	.word	0x00013fcc
   10e34:	00013ed8 	.word	0x00013ed8
   10e38:	40086000 	.word	0x40086000
   10e3c:	200301f4 	.word	0x200301f4

00010e40 <FLEXCOMM1_DriverIRQHandler>:
   10e40:	b580      	push	{r7, lr}
   10e42:	af00      	add	r7, sp, #0
   10e44:	4b09      	ldr	r3, [pc, #36]	; (10e6c <FLEXCOMM1_DriverIRQHandler+0x2c>)
   10e46:	685b      	ldr	r3, [r3, #4]
   10e48:	2b00      	cmp	r3, #0
   10e4a:	d105      	bne.n	10e58 <FLEXCOMM1_DriverIRQHandler+0x18>
   10e4c:	4b08      	ldr	r3, [pc, #32]	; (10e70 <FLEXCOMM1_DriverIRQHandler+0x30>)
   10e4e:	4a09      	ldr	r2, [pc, #36]	; (10e74 <FLEXCOMM1_DriverIRQHandler+0x34>)
   10e50:	21bc      	movs	r1, #188	; 0xbc
   10e52:	4809      	ldr	r0, [pc, #36]	; (10e78 <FLEXCOMM1_DriverIRQHandler+0x38>)
   10e54:	f7ff ff70 	bl	10d38 <__assert_func>
   10e58:	4b04      	ldr	r3, [pc, #16]	; (10e6c <FLEXCOMM1_DriverIRQHandler+0x2c>)
   10e5a:	685b      	ldr	r3, [r3, #4]
   10e5c:	4a07      	ldr	r2, [pc, #28]	; (10e7c <FLEXCOMM1_DriverIRQHandler+0x3c>)
   10e5e:	4610      	mov	r0, r2
   10e60:	4a07      	ldr	r2, [pc, #28]	; (10e80 <FLEXCOMM1_DriverIRQHandler+0x40>)
   10e62:	6852      	ldr	r2, [r2, #4]
   10e64:	4611      	mov	r1, r2
   10e66:	4798      	blx	r3
   10e68:	bf00      	nop
   10e6a:	bd80      	pop	{r7, pc}
   10e6c:	200301d0 	.word	0x200301d0
   10e70:	00013f0c 	.word	0x00013f0c
   10e74:	00013fe8 	.word	0x00013fe8
   10e78:	00013ed8 	.word	0x00013ed8
   10e7c:	40087000 	.word	0x40087000
   10e80:	200301f4 	.word	0x200301f4

00010e84 <FLEXCOMM2_DriverIRQHandler>:
   10e84:	b580      	push	{r7, lr}
   10e86:	af00      	add	r7, sp, #0
   10e88:	4b09      	ldr	r3, [pc, #36]	; (10eb0 <FLEXCOMM2_DriverIRQHandler+0x2c>)
   10e8a:	689b      	ldr	r3, [r3, #8]
   10e8c:	2b00      	cmp	r3, #0
   10e8e:	d105      	bne.n	10e9c <FLEXCOMM2_DriverIRQHandler+0x18>
   10e90:	4b08      	ldr	r3, [pc, #32]	; (10eb4 <FLEXCOMM2_DriverIRQHandler+0x30>)
   10e92:	4a09      	ldr	r2, [pc, #36]	; (10eb8 <FLEXCOMM2_DriverIRQHandler+0x34>)
   10e94:	21c9      	movs	r1, #201	; 0xc9
   10e96:	4809      	ldr	r0, [pc, #36]	; (10ebc <FLEXCOMM2_DriverIRQHandler+0x38>)
   10e98:	f7ff ff4e 	bl	10d38 <__assert_func>
   10e9c:	4b04      	ldr	r3, [pc, #16]	; (10eb0 <FLEXCOMM2_DriverIRQHandler+0x2c>)
   10e9e:	689b      	ldr	r3, [r3, #8]
   10ea0:	4a07      	ldr	r2, [pc, #28]	; (10ec0 <FLEXCOMM2_DriverIRQHandler+0x3c>)
   10ea2:	4610      	mov	r0, r2
   10ea4:	4a07      	ldr	r2, [pc, #28]	; (10ec4 <FLEXCOMM2_DriverIRQHandler+0x40>)
   10ea6:	6892      	ldr	r2, [r2, #8]
   10ea8:	4611      	mov	r1, r2
   10eaa:	4798      	blx	r3
   10eac:	bf00      	nop
   10eae:	bd80      	pop	{r7, pc}
   10eb0:	200301d0 	.word	0x200301d0
   10eb4:	00013f24 	.word	0x00013f24
   10eb8:	00014004 	.word	0x00014004
   10ebc:	00013ed8 	.word	0x00013ed8
   10ec0:	40088000 	.word	0x40088000
   10ec4:	200301f4 	.word	0x200301f4

00010ec8 <FLEXCOMM3_DriverIRQHandler>:
   10ec8:	b580      	push	{r7, lr}
   10eca:	af00      	add	r7, sp, #0
   10ecc:	4b09      	ldr	r3, [pc, #36]	; (10ef4 <FLEXCOMM3_DriverIRQHandler+0x2c>)
   10ece:	68db      	ldr	r3, [r3, #12]
   10ed0:	2b00      	cmp	r3, #0
   10ed2:	d105      	bne.n	10ee0 <FLEXCOMM3_DriverIRQHandler+0x18>
   10ed4:	4b08      	ldr	r3, [pc, #32]	; (10ef8 <FLEXCOMM3_DriverIRQHandler+0x30>)
   10ed6:	4a09      	ldr	r2, [pc, #36]	; (10efc <FLEXCOMM3_DriverIRQHandler+0x34>)
   10ed8:	21d6      	movs	r1, #214	; 0xd6
   10eda:	4809      	ldr	r0, [pc, #36]	; (10f00 <FLEXCOMM3_DriverIRQHandler+0x38>)
   10edc:	f7ff ff2c 	bl	10d38 <__assert_func>
   10ee0:	4b04      	ldr	r3, [pc, #16]	; (10ef4 <FLEXCOMM3_DriverIRQHandler+0x2c>)
   10ee2:	68db      	ldr	r3, [r3, #12]
   10ee4:	4a07      	ldr	r2, [pc, #28]	; (10f04 <FLEXCOMM3_DriverIRQHandler+0x3c>)
   10ee6:	4610      	mov	r0, r2
   10ee8:	4a07      	ldr	r2, [pc, #28]	; (10f08 <FLEXCOMM3_DriverIRQHandler+0x40>)
   10eea:	68d2      	ldr	r2, [r2, #12]
   10eec:	4611      	mov	r1, r2
   10eee:	4798      	blx	r3
   10ef0:	bf00      	nop
   10ef2:	bd80      	pop	{r7, pc}
   10ef4:	200301d0 	.word	0x200301d0
   10ef8:	00013f3c 	.word	0x00013f3c
   10efc:	00014020 	.word	0x00014020
   10f00:	00013ed8 	.word	0x00013ed8
   10f04:	40089000 	.word	0x40089000
   10f08:	200301f4 	.word	0x200301f4

00010f0c <FLEXCOMM4_DriverIRQHandler>:
   10f0c:	b580      	push	{r7, lr}
   10f0e:	af00      	add	r7, sp, #0
   10f10:	4b09      	ldr	r3, [pc, #36]	; (10f38 <FLEXCOMM4_DriverIRQHandler+0x2c>)
   10f12:	691b      	ldr	r3, [r3, #16]
   10f14:	2b00      	cmp	r3, #0
   10f16:	d105      	bne.n	10f24 <FLEXCOMM4_DriverIRQHandler+0x18>
   10f18:	4b08      	ldr	r3, [pc, #32]	; (10f3c <FLEXCOMM4_DriverIRQHandler+0x30>)
   10f1a:	4a09      	ldr	r2, [pc, #36]	; (10f40 <FLEXCOMM4_DriverIRQHandler+0x34>)
   10f1c:	21e3      	movs	r1, #227	; 0xe3
   10f1e:	4809      	ldr	r0, [pc, #36]	; (10f44 <FLEXCOMM4_DriverIRQHandler+0x38>)
   10f20:	f7ff ff0a 	bl	10d38 <__assert_func>
   10f24:	4b04      	ldr	r3, [pc, #16]	; (10f38 <FLEXCOMM4_DriverIRQHandler+0x2c>)
   10f26:	691b      	ldr	r3, [r3, #16]
   10f28:	4a07      	ldr	r2, [pc, #28]	; (10f48 <FLEXCOMM4_DriverIRQHandler+0x3c>)
   10f2a:	4610      	mov	r0, r2
   10f2c:	4a07      	ldr	r2, [pc, #28]	; (10f4c <FLEXCOMM4_DriverIRQHandler+0x40>)
   10f2e:	6912      	ldr	r2, [r2, #16]
   10f30:	4611      	mov	r1, r2
   10f32:	4798      	blx	r3
   10f34:	bf00      	nop
   10f36:	bd80      	pop	{r7, pc}
   10f38:	200301d0 	.word	0x200301d0
   10f3c:	00013f54 	.word	0x00013f54
   10f40:	0001403c 	.word	0x0001403c
   10f44:	00013ed8 	.word	0x00013ed8
   10f48:	4008a000 	.word	0x4008a000
   10f4c:	200301f4 	.word	0x200301f4

00010f50 <FLEXCOMM5_DriverIRQHandler>:
   10f50:	b580      	push	{r7, lr}
   10f52:	af00      	add	r7, sp, #0
   10f54:	4b09      	ldr	r3, [pc, #36]	; (10f7c <FLEXCOMM5_DriverIRQHandler+0x2c>)
   10f56:	695b      	ldr	r3, [r3, #20]
   10f58:	2b00      	cmp	r3, #0
   10f5a:	d105      	bne.n	10f68 <FLEXCOMM5_DriverIRQHandler+0x18>
   10f5c:	4b08      	ldr	r3, [pc, #32]	; (10f80 <FLEXCOMM5_DriverIRQHandler+0x30>)
   10f5e:	4a09      	ldr	r2, [pc, #36]	; (10f84 <FLEXCOMM5_DriverIRQHandler+0x34>)
   10f60:	21f1      	movs	r1, #241	; 0xf1
   10f62:	4809      	ldr	r0, [pc, #36]	; (10f88 <FLEXCOMM5_DriverIRQHandler+0x38>)
   10f64:	f7ff fee8 	bl	10d38 <__assert_func>
   10f68:	4b04      	ldr	r3, [pc, #16]	; (10f7c <FLEXCOMM5_DriverIRQHandler+0x2c>)
   10f6a:	695b      	ldr	r3, [r3, #20]
   10f6c:	4a07      	ldr	r2, [pc, #28]	; (10f8c <FLEXCOMM5_DriverIRQHandler+0x3c>)
   10f6e:	4610      	mov	r0, r2
   10f70:	4a07      	ldr	r2, [pc, #28]	; (10f90 <FLEXCOMM5_DriverIRQHandler+0x40>)
   10f72:	6952      	ldr	r2, [r2, #20]
   10f74:	4611      	mov	r1, r2
   10f76:	4798      	blx	r3
   10f78:	bf00      	nop
   10f7a:	bd80      	pop	{r7, pc}
   10f7c:	200301d0 	.word	0x200301d0
   10f80:	00013f6c 	.word	0x00013f6c
   10f84:	00014058 	.word	0x00014058
   10f88:	00013ed8 	.word	0x00013ed8
   10f8c:	40096000 	.word	0x40096000
   10f90:	200301f4 	.word	0x200301f4

00010f94 <FLEXCOMM6_DriverIRQHandler>:
   10f94:	b580      	push	{r7, lr}
   10f96:	af00      	add	r7, sp, #0
   10f98:	4b09      	ldr	r3, [pc, #36]	; (10fc0 <FLEXCOMM6_DriverIRQHandler+0x2c>)
   10f9a:	699b      	ldr	r3, [r3, #24]
   10f9c:	2b00      	cmp	r3, #0
   10f9e:	d105      	bne.n	10fac <FLEXCOMM6_DriverIRQHandler+0x18>
   10fa0:	4b08      	ldr	r3, [pc, #32]	; (10fc4 <FLEXCOMM6_DriverIRQHandler+0x30>)
   10fa2:	4a09      	ldr	r2, [pc, #36]	; (10fc8 <FLEXCOMM6_DriverIRQHandler+0x34>)
   10fa4:	21fe      	movs	r1, #254	; 0xfe
   10fa6:	4809      	ldr	r0, [pc, #36]	; (10fcc <FLEXCOMM6_DriverIRQHandler+0x38>)
   10fa8:	f7ff fec6 	bl	10d38 <__assert_func>
   10fac:	4b04      	ldr	r3, [pc, #16]	; (10fc0 <FLEXCOMM6_DriverIRQHandler+0x2c>)
   10fae:	699b      	ldr	r3, [r3, #24]
   10fb0:	4a07      	ldr	r2, [pc, #28]	; (10fd0 <FLEXCOMM6_DriverIRQHandler+0x3c>)
   10fb2:	4610      	mov	r0, r2
   10fb4:	4a07      	ldr	r2, [pc, #28]	; (10fd4 <FLEXCOMM6_DriverIRQHandler+0x40>)
   10fb6:	6992      	ldr	r2, [r2, #24]
   10fb8:	4611      	mov	r1, r2
   10fba:	4798      	blx	r3
   10fbc:	bf00      	nop
   10fbe:	bd80      	pop	{r7, pc}
   10fc0:	200301d0 	.word	0x200301d0
   10fc4:	00013f84 	.word	0x00013f84
   10fc8:	00014074 	.word	0x00014074
   10fcc:	00013ed8 	.word	0x00013ed8
   10fd0:	40097000 	.word	0x40097000
   10fd4:	200301f4 	.word	0x200301f4

00010fd8 <FLEXCOMM7_DriverIRQHandler>:
   10fd8:	b580      	push	{r7, lr}
   10fda:	af00      	add	r7, sp, #0
   10fdc:	4b0a      	ldr	r3, [pc, #40]	; (11008 <FLEXCOMM7_DriverIRQHandler+0x30>)
   10fde:	69db      	ldr	r3, [r3, #28]
   10fe0:	2b00      	cmp	r3, #0
   10fe2:	d106      	bne.n	10ff2 <FLEXCOMM7_DriverIRQHandler+0x1a>
   10fe4:	4b09      	ldr	r3, [pc, #36]	; (1100c <FLEXCOMM7_DriverIRQHandler+0x34>)
   10fe6:	4a0a      	ldr	r2, [pc, #40]	; (11010 <FLEXCOMM7_DriverIRQHandler+0x38>)
   10fe8:	f240 110b 	movw	r1, #267	; 0x10b
   10fec:	4809      	ldr	r0, [pc, #36]	; (11014 <FLEXCOMM7_DriverIRQHandler+0x3c>)
   10fee:	f7ff fea3 	bl	10d38 <__assert_func>
   10ff2:	4b05      	ldr	r3, [pc, #20]	; (11008 <FLEXCOMM7_DriverIRQHandler+0x30>)
   10ff4:	69db      	ldr	r3, [r3, #28]
   10ff6:	4a08      	ldr	r2, [pc, #32]	; (11018 <FLEXCOMM7_DriverIRQHandler+0x40>)
   10ff8:	4610      	mov	r0, r2
   10ffa:	4a08      	ldr	r2, [pc, #32]	; (1101c <FLEXCOMM7_DriverIRQHandler+0x44>)
   10ffc:	69d2      	ldr	r2, [r2, #28]
   10ffe:	4611      	mov	r1, r2
   11000:	4798      	blx	r3
   11002:	bf00      	nop
   11004:	bd80      	pop	{r7, pc}
   11006:	bf00      	nop
   11008:	200301d0 	.word	0x200301d0
   1100c:	00013f9c 	.word	0x00013f9c
   11010:	00014090 	.word	0x00014090
   11014:	00013ed8 	.word	0x00013ed8
   11018:	40098000 	.word	0x40098000
   1101c:	200301f4 	.word	0x200301f4

00011020 <FLEXCOMM8_DriverIRQHandler>:
   11020:	b580      	push	{r7, lr}
   11022:	af00      	add	r7, sp, #0
   11024:	4b0a      	ldr	r3, [pc, #40]	; (11050 <FLEXCOMM8_DriverIRQHandler+0x30>)
   11026:	6a1b      	ldr	r3, [r3, #32]
   11028:	2b00      	cmp	r3, #0
   1102a:	d106      	bne.n	1103a <FLEXCOMM8_DriverIRQHandler+0x1a>
   1102c:	4b09      	ldr	r3, [pc, #36]	; (11054 <FLEXCOMM8_DriverIRQHandler+0x34>)
   1102e:	4a0a      	ldr	r2, [pc, #40]	; (11058 <FLEXCOMM8_DriverIRQHandler+0x38>)
   11030:	f44f 718c 	mov.w	r1, #280	; 0x118
   11034:	4809      	ldr	r0, [pc, #36]	; (1105c <FLEXCOMM8_DriverIRQHandler+0x3c>)
   11036:	f7ff fe7f 	bl	10d38 <__assert_func>
   1103a:	4b05      	ldr	r3, [pc, #20]	; (11050 <FLEXCOMM8_DriverIRQHandler+0x30>)
   1103c:	6a1b      	ldr	r3, [r3, #32]
   1103e:	4a08      	ldr	r2, [pc, #32]	; (11060 <FLEXCOMM8_DriverIRQHandler+0x40>)
   11040:	4610      	mov	r0, r2
   11042:	4a08      	ldr	r2, [pc, #32]	; (11064 <FLEXCOMM8_DriverIRQHandler+0x44>)
   11044:	6a12      	ldr	r2, [r2, #32]
   11046:	4611      	mov	r1, r2
   11048:	4798      	blx	r3
   1104a:	bf00      	nop
   1104c:	bd80      	pop	{r7, pc}
   1104e:	bf00      	nop
   11050:	200301d0 	.word	0x200301d0
   11054:	00013fb4 	.word	0x00013fb4
   11058:	000140ac 	.word	0x000140ac
   1105c:	00013ed8 	.word	0x00013ed8
   11060:	4009f000 	.word	0x4009f000
   11064:	200301f4 	.word	0x200301f4

00011068 <__aeabi_drsub>:
   11068:	f081 4100 	eor.w	r1, r1, #2147483648	; 0x80000000
   1106c:	e002      	b.n	11074 <__adddf3>
   1106e:	bf00      	nop

00011070 <__aeabi_dsub>:
   11070:	f083 4300 	eor.w	r3, r3, #2147483648	; 0x80000000

00011074 <__adddf3>:
   11074:	b530      	push	{r4, r5, lr}
   11076:	ea4f 0441 	mov.w	r4, r1, lsl #1
   1107a:	ea4f 0543 	mov.w	r5, r3, lsl #1
   1107e:	ea94 0f05 	teq	r4, r5
   11082:	bf08      	it	eq
   11084:	ea90 0f02 	teqeq	r0, r2
   11088:	bf1f      	itttt	ne
   1108a:	ea54 0c00 	orrsne.w	ip, r4, r0
   1108e:	ea55 0c02 	orrsne.w	ip, r5, r2
   11092:	ea7f 5c64 	mvnsne.w	ip, r4, asr #21
   11096:	ea7f 5c65 	mvnsne.w	ip, r5, asr #21
   1109a:	f000 80e2 	beq.w	11262 <__adddf3+0x1ee>
   1109e:	ea4f 5454 	mov.w	r4, r4, lsr #21
   110a2:	ebd4 5555 	rsbs	r5, r4, r5, lsr #21
   110a6:	bfb8      	it	lt
   110a8:	426d      	neglt	r5, r5
   110aa:	dd0c      	ble.n	110c6 <__adddf3+0x52>
   110ac:	442c      	add	r4, r5
   110ae:	ea80 0202 	eor.w	r2, r0, r2
   110b2:	ea81 0303 	eor.w	r3, r1, r3
   110b6:	ea82 0000 	eor.w	r0, r2, r0
   110ba:	ea83 0101 	eor.w	r1, r3, r1
   110be:	ea80 0202 	eor.w	r2, r0, r2
   110c2:	ea81 0303 	eor.w	r3, r1, r3
   110c6:	2d36      	cmp	r5, #54	; 0x36
   110c8:	bf88      	it	hi
   110ca:	bd30      	pophi	{r4, r5, pc}
   110cc:	f011 4f00 	tst.w	r1, #2147483648	; 0x80000000
   110d0:	ea4f 3101 	mov.w	r1, r1, lsl #12
   110d4:	f44f 1c80 	mov.w	ip, #1048576	; 0x100000
   110d8:	ea4c 3111 	orr.w	r1, ip, r1, lsr #12
   110dc:	d002      	beq.n	110e4 <__adddf3+0x70>
   110de:	4240      	negs	r0, r0
   110e0:	eb61 0141 	sbc.w	r1, r1, r1, lsl #1
   110e4:	f013 4f00 	tst.w	r3, #2147483648	; 0x80000000
   110e8:	ea4f 3303 	mov.w	r3, r3, lsl #12
   110ec:	ea4c 3313 	orr.w	r3, ip, r3, lsr #12
   110f0:	d002      	beq.n	110f8 <__adddf3+0x84>
   110f2:	4252      	negs	r2, r2
   110f4:	eb63 0343 	sbc.w	r3, r3, r3, lsl #1
   110f8:	ea94 0f05 	teq	r4, r5
   110fc:	f000 80a7 	beq.w	1124e <__adddf3+0x1da>
   11100:	f1a4 0401 	sub.w	r4, r4, #1
   11104:	f1d5 0e20 	rsbs	lr, r5, #32
   11108:	db0d      	blt.n	11126 <__adddf3+0xb2>
   1110a:	fa02 fc0e 	lsl.w	ip, r2, lr
   1110e:	fa22 f205 	lsr.w	r2, r2, r5
   11112:	1880      	adds	r0, r0, r2
   11114:	f141 0100 	adc.w	r1, r1, #0
   11118:	fa03 f20e 	lsl.w	r2, r3, lr
   1111c:	1880      	adds	r0, r0, r2
   1111e:	fa43 f305 	asr.w	r3, r3, r5
   11122:	4159      	adcs	r1, r3
   11124:	e00e      	b.n	11144 <__adddf3+0xd0>
   11126:	f1a5 0520 	sub.w	r5, r5, #32
   1112a:	f10e 0e20 	add.w	lr, lr, #32
   1112e:	2a01      	cmp	r2, #1
   11130:	fa03 fc0e 	lsl.w	ip, r3, lr
   11134:	bf28      	it	cs
   11136:	f04c 0c02 	orrcs.w	ip, ip, #2
   1113a:	fa43 f305 	asr.w	r3, r3, r5
   1113e:	18c0      	adds	r0, r0, r3
   11140:	eb51 71e3 	adcs.w	r1, r1, r3, asr #31
   11144:	f001 4500 	and.w	r5, r1, #2147483648	; 0x80000000
   11148:	d507      	bpl.n	1115a <__adddf3+0xe6>
   1114a:	f04f 0e00 	mov.w	lr, #0
   1114e:	f1dc 0c00 	rsbs	ip, ip, #0
   11152:	eb7e 0000 	sbcs.w	r0, lr, r0
   11156:	eb6e 0101 	sbc.w	r1, lr, r1
   1115a:	f5b1 1f80 	cmp.w	r1, #1048576	; 0x100000
   1115e:	d31b      	bcc.n	11198 <__adddf3+0x124>
   11160:	f5b1 1f00 	cmp.w	r1, #2097152	; 0x200000
   11164:	d30c      	bcc.n	11180 <__adddf3+0x10c>
   11166:	0849      	lsrs	r1, r1, #1
   11168:	ea5f 0030 	movs.w	r0, r0, rrx
   1116c:	ea4f 0c3c 	mov.w	ip, ip, rrx
   11170:	f104 0401 	add.w	r4, r4, #1
   11174:	ea4f 5244 	mov.w	r2, r4, lsl #21
   11178:	f512 0f80 	cmn.w	r2, #4194304	; 0x400000
   1117c:	f080 809a 	bcs.w	112b4 <__adddf3+0x240>
   11180:	f1bc 4f00 	cmp.w	ip, #2147483648	; 0x80000000
   11184:	bf08      	it	eq
   11186:	ea5f 0c50 	movseq.w	ip, r0, lsr #1
   1118a:	f150 0000 	adcs.w	r0, r0, #0
   1118e:	eb41 5104 	adc.w	r1, r1, r4, lsl #20
   11192:	ea41 0105 	orr.w	r1, r1, r5
   11196:	bd30      	pop	{r4, r5, pc}
   11198:	ea5f 0c4c 	movs.w	ip, ip, lsl #1
   1119c:	4140      	adcs	r0, r0
   1119e:	eb41 0101 	adc.w	r1, r1, r1
   111a2:	f411 1f80 	tst.w	r1, #1048576	; 0x100000
   111a6:	f1a4 0401 	sub.w	r4, r4, #1
   111aa:	d1e9      	bne.n	11180 <__adddf3+0x10c>
   111ac:	f091 0f00 	teq	r1, #0
   111b0:	bf04      	itt	eq
   111b2:	4601      	moveq	r1, r0
   111b4:	2000      	moveq	r0, #0
   111b6:	fab1 f381 	clz	r3, r1
   111ba:	bf08      	it	eq
   111bc:	3320      	addeq	r3, #32
   111be:	f1a3 030b 	sub.w	r3, r3, #11
   111c2:	f1b3 0220 	subs.w	r2, r3, #32
   111c6:	da0c      	bge.n	111e2 <__adddf3+0x16e>
   111c8:	320c      	adds	r2, #12
   111ca:	dd08      	ble.n	111de <__adddf3+0x16a>
   111cc:	f102 0c14 	add.w	ip, r2, #20
   111d0:	f1c2 020c 	rsb	r2, r2, #12
   111d4:	fa01 f00c 	lsl.w	r0, r1, ip
   111d8:	fa21 f102 	lsr.w	r1, r1, r2
   111dc:	e00c      	b.n	111f8 <__adddf3+0x184>
   111de:	f102 0214 	add.w	r2, r2, #20
   111e2:	bfd8      	it	le
   111e4:	f1c2 0c20 	rsble	ip, r2, #32
   111e8:	fa01 f102 	lsl.w	r1, r1, r2
   111ec:	fa20 fc0c 	lsr.w	ip, r0, ip
   111f0:	bfdc      	itt	le
   111f2:	ea41 010c 	orrle.w	r1, r1, ip
   111f6:	4090      	lslle	r0, r2
   111f8:	1ae4      	subs	r4, r4, r3
   111fa:	bfa2      	ittt	ge
   111fc:	eb01 5104 	addge.w	r1, r1, r4, lsl #20
   11200:	4329      	orrge	r1, r5
   11202:	bd30      	popge	{r4, r5, pc}
   11204:	ea6f 0404 	mvn.w	r4, r4
   11208:	3c1f      	subs	r4, #31
   1120a:	da1c      	bge.n	11246 <__adddf3+0x1d2>
   1120c:	340c      	adds	r4, #12
   1120e:	dc0e      	bgt.n	1122e <__adddf3+0x1ba>
   11210:	f104 0414 	add.w	r4, r4, #20
   11214:	f1c4 0220 	rsb	r2, r4, #32
   11218:	fa20 f004 	lsr.w	r0, r0, r4
   1121c:	fa01 f302 	lsl.w	r3, r1, r2
   11220:	ea40 0003 	orr.w	r0, r0, r3
   11224:	fa21 f304 	lsr.w	r3, r1, r4
   11228:	ea45 0103 	orr.w	r1, r5, r3
   1122c:	bd30      	pop	{r4, r5, pc}
   1122e:	f1c4 040c 	rsb	r4, r4, #12
   11232:	f1c4 0220 	rsb	r2, r4, #32
   11236:	fa20 f002 	lsr.w	r0, r0, r2
   1123a:	fa01 f304 	lsl.w	r3, r1, r4
   1123e:	ea40 0003 	orr.w	r0, r0, r3
   11242:	4629      	mov	r1, r5
   11244:	bd30      	pop	{r4, r5, pc}
   11246:	fa21 f004 	lsr.w	r0, r1, r4
   1124a:	4629      	mov	r1, r5
   1124c:	bd30      	pop	{r4, r5, pc}
   1124e:	f094 0f00 	teq	r4, #0
   11252:	f483 1380 	eor.w	r3, r3, #1048576	; 0x100000
   11256:	bf06      	itte	eq
   11258:	f481 1180 	eoreq.w	r1, r1, #1048576	; 0x100000
   1125c:	3401      	addeq	r4, #1
   1125e:	3d01      	subne	r5, #1
   11260:	e74e      	b.n	11100 <__adddf3+0x8c>
   11262:	ea7f 5c64 	mvns.w	ip, r4, asr #21
   11266:	bf18      	it	ne
   11268:	ea7f 5c65 	mvnsne.w	ip, r5, asr #21
   1126c:	d029      	beq.n	112c2 <__adddf3+0x24e>
   1126e:	ea94 0f05 	teq	r4, r5
   11272:	bf08      	it	eq
   11274:	ea90 0f02 	teqeq	r0, r2
   11278:	d005      	beq.n	11286 <__adddf3+0x212>
   1127a:	ea54 0c00 	orrs.w	ip, r4, r0
   1127e:	bf04      	itt	eq
   11280:	4619      	moveq	r1, r3
   11282:	4610      	moveq	r0, r2
   11284:	bd30      	pop	{r4, r5, pc}
   11286:	ea91 0f03 	teq	r1, r3
   1128a:	bf1e      	ittt	ne
   1128c:	2100      	movne	r1, #0
   1128e:	2000      	movne	r0, #0
   11290:	bd30      	popne	{r4, r5, pc}
   11292:	ea5f 5c54 	movs.w	ip, r4, lsr #21
   11296:	d105      	bne.n	112a4 <__adddf3+0x230>
   11298:	0040      	lsls	r0, r0, #1
   1129a:	4149      	adcs	r1, r1
   1129c:	bf28      	it	cs
   1129e:	f041 4100 	orrcs.w	r1, r1, #2147483648	; 0x80000000
   112a2:	bd30      	pop	{r4, r5, pc}
   112a4:	f514 0480 	adds.w	r4, r4, #4194304	; 0x400000
   112a8:	bf3c      	itt	cc
   112aa:	f501 1180 	addcc.w	r1, r1, #1048576	; 0x100000
   112ae:	bd30      	popcc	{r4, r5, pc}
   112b0:	f001 4500 	and.w	r5, r1, #2147483648	; 0x80000000
   112b4:	f045 41fe 	orr.w	r1, r5, #2130706432	; 0x7f000000
   112b8:	f441 0170 	orr.w	r1, r1, #15728640	; 0xf00000
   112bc:	f04f 0000 	mov.w	r0, #0
   112c0:	bd30      	pop	{r4, r5, pc}
   112c2:	ea7f 5c64 	mvns.w	ip, r4, asr #21
   112c6:	bf1a      	itte	ne
   112c8:	4619      	movne	r1, r3
   112ca:	4610      	movne	r0, r2
   112cc:	ea7f 5c65 	mvnseq.w	ip, r5, asr #21
   112d0:	bf1c      	itt	ne
   112d2:	460b      	movne	r3, r1
   112d4:	4602      	movne	r2, r0
   112d6:	ea50 3401 	orrs.w	r4, r0, r1, lsl #12
   112da:	bf06      	itte	eq
   112dc:	ea52 3503 	orrseq.w	r5, r2, r3, lsl #12
   112e0:	ea91 0f03 	teqeq	r1, r3
   112e4:	f441 2100 	orrne.w	r1, r1, #524288	; 0x80000
   112e8:	bd30      	pop	{r4, r5, pc}
   112ea:	bf00      	nop

000112ec <__aeabi_ui2d>:
   112ec:	f090 0f00 	teq	r0, #0
   112f0:	bf04      	itt	eq
   112f2:	2100      	moveq	r1, #0
   112f4:	4770      	bxeq	lr
   112f6:	b530      	push	{r4, r5, lr}
   112f8:	f44f 6480 	mov.w	r4, #1024	; 0x400
   112fc:	f104 0432 	add.w	r4, r4, #50	; 0x32
   11300:	f04f 0500 	mov.w	r5, #0
   11304:	f04f 0100 	mov.w	r1, #0
   11308:	e750      	b.n	111ac <__adddf3+0x138>
   1130a:	bf00      	nop

0001130c <__aeabi_i2d>:
   1130c:	f090 0f00 	teq	r0, #0
   11310:	bf04      	itt	eq
   11312:	2100      	moveq	r1, #0
   11314:	4770      	bxeq	lr
   11316:	b530      	push	{r4, r5, lr}
   11318:	f44f 6480 	mov.w	r4, #1024	; 0x400
   1131c:	f104 0432 	add.w	r4, r4, #50	; 0x32
   11320:	f010 4500 	ands.w	r5, r0, #2147483648	; 0x80000000
   11324:	bf48      	it	mi
   11326:	4240      	negmi	r0, r0
   11328:	f04f 0100 	mov.w	r1, #0
   1132c:	e73e      	b.n	111ac <__adddf3+0x138>
   1132e:	bf00      	nop

00011330 <__aeabi_f2d>:
   11330:	0042      	lsls	r2, r0, #1
   11332:	ea4f 01e2 	mov.w	r1, r2, asr #3
   11336:	ea4f 0131 	mov.w	r1, r1, rrx
   1133a:	ea4f 7002 	mov.w	r0, r2, lsl #28
   1133e:	bf1f      	itttt	ne
   11340:	f012 437f 	andsne.w	r3, r2, #4278190080	; 0xff000000
   11344:	f093 4f7f 	teqne	r3, #4278190080	; 0xff000000
   11348:	f081 5160 	eorne.w	r1, r1, #939524096	; 0x38000000
   1134c:	4770      	bxne	lr
   1134e:	f032 427f 	bics.w	r2, r2, #4278190080	; 0xff000000
   11352:	bf08      	it	eq
   11354:	4770      	bxeq	lr
   11356:	f093 4f7f 	teq	r3, #4278190080	; 0xff000000
   1135a:	bf04      	itt	eq
   1135c:	f441 2100 	orreq.w	r1, r1, #524288	; 0x80000
   11360:	4770      	bxeq	lr
   11362:	b530      	push	{r4, r5, lr}
   11364:	f44f 7460 	mov.w	r4, #896	; 0x380
   11368:	f001 4500 	and.w	r5, r1, #2147483648	; 0x80000000
   1136c:	f021 4100 	bic.w	r1, r1, #2147483648	; 0x80000000
   11370:	e71c      	b.n	111ac <__adddf3+0x138>
   11372:	bf00      	nop

00011374 <__aeabi_ul2d>:
   11374:	ea50 0201 	orrs.w	r2, r0, r1
   11378:	bf08      	it	eq
   1137a:	4770      	bxeq	lr
   1137c:	b530      	push	{r4, r5, lr}
   1137e:	f04f 0500 	mov.w	r5, #0
   11382:	e00a      	b.n	1139a <__aeabi_l2d+0x16>

00011384 <__aeabi_l2d>:
   11384:	ea50 0201 	orrs.w	r2, r0, r1
   11388:	bf08      	it	eq
   1138a:	4770      	bxeq	lr
   1138c:	b530      	push	{r4, r5, lr}
   1138e:	f011 4500 	ands.w	r5, r1, #2147483648	; 0x80000000
   11392:	d502      	bpl.n	1139a <__aeabi_l2d+0x16>
   11394:	4240      	negs	r0, r0
   11396:	eb61 0141 	sbc.w	r1, r1, r1, lsl #1
   1139a:	f44f 6480 	mov.w	r4, #1024	; 0x400
   1139e:	f104 0432 	add.w	r4, r4, #50	; 0x32
   113a2:	ea5f 5c91 	movs.w	ip, r1, lsr #22
   113a6:	f43f aed8 	beq.w	1115a <__adddf3+0xe6>
   113aa:	f04f 0203 	mov.w	r2, #3
   113ae:	ea5f 0cdc 	movs.w	ip, ip, lsr #3
   113b2:	bf18      	it	ne
   113b4:	3203      	addne	r2, #3
   113b6:	ea5f 0cdc 	movs.w	ip, ip, lsr #3
   113ba:	bf18      	it	ne
   113bc:	3203      	addne	r2, #3
   113be:	eb02 02dc 	add.w	r2, r2, ip, lsr #3
   113c2:	f1c2 0320 	rsb	r3, r2, #32
   113c6:	fa00 fc03 	lsl.w	ip, r0, r3
   113ca:	fa20 f002 	lsr.w	r0, r0, r2
   113ce:	fa01 fe03 	lsl.w	lr, r1, r3
   113d2:	ea40 000e 	orr.w	r0, r0, lr
   113d6:	fa21 f102 	lsr.w	r1, r1, r2
   113da:	4414      	add	r4, r2
   113dc:	e6bd      	b.n	1115a <__adddf3+0xe6>
   113de:	bf00      	nop

000113e0 <__aeabi_dmul>:
   113e0:	b570      	push	{r4, r5, r6, lr}
   113e2:	f04f 0cff 	mov.w	ip, #255	; 0xff
   113e6:	f44c 6ce0 	orr.w	ip, ip, #1792	; 0x700
   113ea:	ea1c 5411 	ands.w	r4, ip, r1, lsr #20
   113ee:	bf1d      	ittte	ne
   113f0:	ea1c 5513 	andsne.w	r5, ip, r3, lsr #20
   113f4:	ea94 0f0c 	teqne	r4, ip
   113f8:	ea95 0f0c 	teqne	r5, ip
   113fc:	f000 f8de 	bleq	115bc <__aeabi_dmul+0x1dc>
   11400:	442c      	add	r4, r5
   11402:	ea81 0603 	eor.w	r6, r1, r3
   11406:	ea21 514c 	bic.w	r1, r1, ip, lsl #21
   1140a:	ea23 534c 	bic.w	r3, r3, ip, lsl #21
   1140e:	ea50 3501 	orrs.w	r5, r0, r1, lsl #12
   11412:	bf18      	it	ne
   11414:	ea52 3503 	orrsne.w	r5, r2, r3, lsl #12
   11418:	f441 1180 	orr.w	r1, r1, #1048576	; 0x100000
   1141c:	f443 1380 	orr.w	r3, r3, #1048576	; 0x100000
   11420:	d038      	beq.n	11494 <__aeabi_dmul+0xb4>
   11422:	fba0 ce02 	umull	ip, lr, r0, r2
   11426:	f04f 0500 	mov.w	r5, #0
   1142a:	fbe1 e502 	umlal	lr, r5, r1, r2
   1142e:	f006 4200 	and.w	r2, r6, #2147483648	; 0x80000000
   11432:	fbe0 e503 	umlal	lr, r5, r0, r3
   11436:	f04f 0600 	mov.w	r6, #0
   1143a:	fbe1 5603 	umlal	r5, r6, r1, r3
   1143e:	f09c 0f00 	teq	ip, #0
   11442:	bf18      	it	ne
   11444:	f04e 0e01 	orrne.w	lr, lr, #1
   11448:	f1a4 04ff 	sub.w	r4, r4, #255	; 0xff
   1144c:	f5b6 7f00 	cmp.w	r6, #512	; 0x200
   11450:	f564 7440 	sbc.w	r4, r4, #768	; 0x300
   11454:	d204      	bcs.n	11460 <__aeabi_dmul+0x80>
   11456:	ea5f 0e4e 	movs.w	lr, lr, lsl #1
   1145a:	416d      	adcs	r5, r5
   1145c:	eb46 0606 	adc.w	r6, r6, r6
   11460:	ea42 21c6 	orr.w	r1, r2, r6, lsl #11
   11464:	ea41 5155 	orr.w	r1, r1, r5, lsr #21
   11468:	ea4f 20c5 	mov.w	r0, r5, lsl #11
   1146c:	ea40 505e 	orr.w	r0, r0, lr, lsr #21
   11470:	ea4f 2ece 	mov.w	lr, lr, lsl #11
   11474:	f1b4 0cfd 	subs.w	ip, r4, #253	; 0xfd
   11478:	bf88      	it	hi
   1147a:	f5bc 6fe0 	cmphi.w	ip, #1792	; 0x700
   1147e:	d81e      	bhi.n	114be <__aeabi_dmul+0xde>
   11480:	f1be 4f00 	cmp.w	lr, #2147483648	; 0x80000000
   11484:	bf08      	it	eq
   11486:	ea5f 0e50 	movseq.w	lr, r0, lsr #1
   1148a:	f150 0000 	adcs.w	r0, r0, #0
   1148e:	eb41 5104 	adc.w	r1, r1, r4, lsl #20
   11492:	bd70      	pop	{r4, r5, r6, pc}
   11494:	f006 4600 	and.w	r6, r6, #2147483648	; 0x80000000
   11498:	ea46 0101 	orr.w	r1, r6, r1
   1149c:	ea40 0002 	orr.w	r0, r0, r2
   114a0:	ea81 0103 	eor.w	r1, r1, r3
   114a4:	ebb4 045c 	subs.w	r4, r4, ip, lsr #1
   114a8:	bfc2      	ittt	gt
   114aa:	ebd4 050c 	rsbsgt	r5, r4, ip
   114ae:	ea41 5104 	orrgt.w	r1, r1, r4, lsl #20
   114b2:	bd70      	popgt	{r4, r5, r6, pc}
   114b4:	f441 1180 	orr.w	r1, r1, #1048576	; 0x100000
   114b8:	f04f 0e00 	mov.w	lr, #0
   114bc:	3c01      	subs	r4, #1
   114be:	f300 80ab 	bgt.w	11618 <__aeabi_dmul+0x238>
   114c2:	f114 0f36 	cmn.w	r4, #54	; 0x36
   114c6:	bfde      	ittt	le
   114c8:	2000      	movle	r0, #0
   114ca:	f001 4100 	andle.w	r1, r1, #2147483648	; 0x80000000
   114ce:	bd70      	pople	{r4, r5, r6, pc}
   114d0:	f1c4 0400 	rsb	r4, r4, #0
   114d4:	3c20      	subs	r4, #32
   114d6:	da35      	bge.n	11544 <__aeabi_dmul+0x164>
   114d8:	340c      	adds	r4, #12
   114da:	dc1b      	bgt.n	11514 <__aeabi_dmul+0x134>
   114dc:	f104 0414 	add.w	r4, r4, #20
   114e0:	f1c4 0520 	rsb	r5, r4, #32
   114e4:	fa00 f305 	lsl.w	r3, r0, r5
   114e8:	fa20 f004 	lsr.w	r0, r0, r4
   114ec:	fa01 f205 	lsl.w	r2, r1, r5
   114f0:	ea40 0002 	orr.w	r0, r0, r2
   114f4:	f001 4200 	and.w	r2, r1, #2147483648	; 0x80000000
   114f8:	f021 4100 	bic.w	r1, r1, #2147483648	; 0x80000000
   114fc:	eb10 70d3 	adds.w	r0, r0, r3, lsr #31
   11500:	fa21 f604 	lsr.w	r6, r1, r4
   11504:	eb42 0106 	adc.w	r1, r2, r6
   11508:	ea5e 0e43 	orrs.w	lr, lr, r3, lsl #1
   1150c:	bf08      	it	eq
   1150e:	ea20 70d3 	biceq.w	r0, r0, r3, lsr #31
   11512:	bd70      	pop	{r4, r5, r6, pc}
   11514:	f1c4 040c 	rsb	r4, r4, #12
   11518:	f1c4 0520 	rsb	r5, r4, #32
   1151c:	fa00 f304 	lsl.w	r3, r0, r4
   11520:	fa20 f005 	lsr.w	r0, r0, r5
   11524:	fa01 f204 	lsl.w	r2, r1, r4
   11528:	ea40 0002 	orr.w	r0, r0, r2
   1152c:	f001 4100 	and.w	r1, r1, #2147483648	; 0x80000000
   11530:	eb10 70d3 	adds.w	r0, r0, r3, lsr #31
   11534:	f141 0100 	adc.w	r1, r1, #0
   11538:	ea5e 0e43 	orrs.w	lr, lr, r3, lsl #1
   1153c:	bf08      	it	eq
   1153e:	ea20 70d3 	biceq.w	r0, r0, r3, lsr #31
   11542:	bd70      	pop	{r4, r5, r6, pc}
   11544:	f1c4 0520 	rsb	r5, r4, #32
   11548:	fa00 f205 	lsl.w	r2, r0, r5
   1154c:	ea4e 0e02 	orr.w	lr, lr, r2
   11550:	fa20 f304 	lsr.w	r3, r0, r4
   11554:	fa01 f205 	lsl.w	r2, r1, r5
   11558:	ea43 0302 	orr.w	r3, r3, r2
   1155c:	fa21 f004 	lsr.w	r0, r1, r4
   11560:	f001 4100 	and.w	r1, r1, #2147483648	; 0x80000000
   11564:	fa21 f204 	lsr.w	r2, r1, r4
   11568:	ea20 0002 	bic.w	r0, r0, r2
   1156c:	eb00 70d3 	add.w	r0, r0, r3, lsr #31
   11570:	ea5e 0e43 	orrs.w	lr, lr, r3, lsl #1
   11574:	bf08      	it	eq
   11576:	ea20 70d3 	biceq.w	r0, r0, r3, lsr #31
   1157a:	bd70      	pop	{r4, r5, r6, pc}
   1157c:	f094 0f00 	teq	r4, #0
   11580:	d10f      	bne.n	115a2 <__aeabi_dmul+0x1c2>
   11582:	f001 4600 	and.w	r6, r1, #2147483648	; 0x80000000
   11586:	0040      	lsls	r0, r0, #1
   11588:	eb41 0101 	adc.w	r1, r1, r1
   1158c:	f411 1f80 	tst.w	r1, #1048576	; 0x100000
   11590:	bf08      	it	eq
   11592:	3c01      	subeq	r4, #1
   11594:	d0f7      	beq.n	11586 <__aeabi_dmul+0x1a6>
   11596:	ea41 0106 	orr.w	r1, r1, r6
   1159a:	f095 0f00 	teq	r5, #0
   1159e:	bf18      	it	ne
   115a0:	4770      	bxne	lr
   115a2:	f003 4600 	and.w	r6, r3, #2147483648	; 0x80000000
   115a6:	0052      	lsls	r2, r2, #1
   115a8:	eb43 0303 	adc.w	r3, r3, r3
   115ac:	f413 1f80 	tst.w	r3, #1048576	; 0x100000
   115b0:	bf08      	it	eq
   115b2:	3d01      	subeq	r5, #1
   115b4:	d0f7      	beq.n	115a6 <__aeabi_dmul+0x1c6>
   115b6:	ea43 0306 	orr.w	r3, r3, r6
   115ba:	4770      	bx	lr
   115bc:	ea94 0f0c 	teq	r4, ip
   115c0:	ea0c 5513 	and.w	r5, ip, r3, lsr #20
   115c4:	bf18      	it	ne
   115c6:	ea95 0f0c 	teqne	r5, ip
   115ca:	d00c      	beq.n	115e6 <__aeabi_dmul+0x206>
   115cc:	ea50 0641 	orrs.w	r6, r0, r1, lsl #1
   115d0:	bf18      	it	ne
   115d2:	ea52 0643 	orrsne.w	r6, r2, r3, lsl #1
   115d6:	d1d1      	bne.n	1157c <__aeabi_dmul+0x19c>
   115d8:	ea81 0103 	eor.w	r1, r1, r3
   115dc:	f001 4100 	and.w	r1, r1, #2147483648	; 0x80000000
   115e0:	f04f 0000 	mov.w	r0, #0
   115e4:	bd70      	pop	{r4, r5, r6, pc}
   115e6:	ea50 0641 	orrs.w	r6, r0, r1, lsl #1
   115ea:	bf06      	itte	eq
   115ec:	4610      	moveq	r0, r2
   115ee:	4619      	moveq	r1, r3
   115f0:	ea52 0643 	orrsne.w	r6, r2, r3, lsl #1
   115f4:	d019      	beq.n	1162a <__aeabi_dmul+0x24a>
   115f6:	ea94 0f0c 	teq	r4, ip
   115fa:	d102      	bne.n	11602 <__aeabi_dmul+0x222>
   115fc:	ea50 3601 	orrs.w	r6, r0, r1, lsl #12
   11600:	d113      	bne.n	1162a <__aeabi_dmul+0x24a>
   11602:	ea95 0f0c 	teq	r5, ip
   11606:	d105      	bne.n	11614 <__aeabi_dmul+0x234>
   11608:	ea52 3603 	orrs.w	r6, r2, r3, lsl #12
   1160c:	bf1c      	itt	ne
   1160e:	4610      	movne	r0, r2
   11610:	4619      	movne	r1, r3
   11612:	d10a      	bne.n	1162a <__aeabi_dmul+0x24a>
   11614:	ea81 0103 	eor.w	r1, r1, r3
   11618:	f001 4100 	and.w	r1, r1, #2147483648	; 0x80000000
   1161c:	f041 41fe 	orr.w	r1, r1, #2130706432	; 0x7f000000
   11620:	f441 0170 	orr.w	r1, r1, #15728640	; 0xf00000
   11624:	f04f 0000 	mov.w	r0, #0
   11628:	bd70      	pop	{r4, r5, r6, pc}
   1162a:	f041 41fe 	orr.w	r1, r1, #2130706432	; 0x7f000000
   1162e:	f441 0178 	orr.w	r1, r1, #16252928	; 0xf80000
   11632:	bd70      	pop	{r4, r5, r6, pc}

00011634 <__aeabi_ddiv>:
   11634:	b570      	push	{r4, r5, r6, lr}
   11636:	f04f 0cff 	mov.w	ip, #255	; 0xff
   1163a:	f44c 6ce0 	orr.w	ip, ip, #1792	; 0x700
   1163e:	ea1c 5411 	ands.w	r4, ip, r1, lsr #20
   11642:	bf1d      	ittte	ne
   11644:	ea1c 5513 	andsne.w	r5, ip, r3, lsr #20
   11648:	ea94 0f0c 	teqne	r4, ip
   1164c:	ea95 0f0c 	teqne	r5, ip
   11650:	f000 f8a7 	bleq	117a2 <__aeabi_ddiv+0x16e>
   11654:	eba4 0405 	sub.w	r4, r4, r5
   11658:	ea81 0e03 	eor.w	lr, r1, r3
   1165c:	ea52 3503 	orrs.w	r5, r2, r3, lsl #12
   11660:	ea4f 3101 	mov.w	r1, r1, lsl #12
   11664:	f000 8088 	beq.w	11778 <__aeabi_ddiv+0x144>
   11668:	ea4f 3303 	mov.w	r3, r3, lsl #12
   1166c:	f04f 5580 	mov.w	r5, #268435456	; 0x10000000
   11670:	ea45 1313 	orr.w	r3, r5, r3, lsr #4
   11674:	ea43 6312 	orr.w	r3, r3, r2, lsr #24
   11678:	ea4f 2202 	mov.w	r2, r2, lsl #8
   1167c:	ea45 1511 	orr.w	r5, r5, r1, lsr #4
   11680:	ea45 6510 	orr.w	r5, r5, r0, lsr #24
   11684:	ea4f 2600 	mov.w	r6, r0, lsl #8
   11688:	f00e 4100 	and.w	r1, lr, #2147483648	; 0x80000000
   1168c:	429d      	cmp	r5, r3
   1168e:	bf08      	it	eq
   11690:	4296      	cmpeq	r6, r2
   11692:	f144 04fd 	adc.w	r4, r4, #253	; 0xfd
   11696:	f504 7440 	add.w	r4, r4, #768	; 0x300
   1169a:	d202      	bcs.n	116a2 <__aeabi_ddiv+0x6e>
   1169c:	085b      	lsrs	r3, r3, #1
   1169e:	ea4f 0232 	mov.w	r2, r2, rrx
   116a2:	1ab6      	subs	r6, r6, r2
   116a4:	eb65 0503 	sbc.w	r5, r5, r3
   116a8:	085b      	lsrs	r3, r3, #1
   116aa:	ea4f 0232 	mov.w	r2, r2, rrx
   116ae:	f44f 1080 	mov.w	r0, #1048576	; 0x100000
   116b2:	f44f 2c00 	mov.w	ip, #524288	; 0x80000
   116b6:	ebb6 0e02 	subs.w	lr, r6, r2
   116ba:	eb75 0e03 	sbcs.w	lr, r5, r3
   116be:	bf22      	ittt	cs
   116c0:	1ab6      	subcs	r6, r6, r2
   116c2:	4675      	movcs	r5, lr
   116c4:	ea40 000c 	orrcs.w	r0, r0, ip
   116c8:	085b      	lsrs	r3, r3, #1
   116ca:	ea4f 0232 	mov.w	r2, r2, rrx
   116ce:	ebb6 0e02 	subs.w	lr, r6, r2
   116d2:	eb75 0e03 	sbcs.w	lr, r5, r3
   116d6:	bf22      	ittt	cs
   116d8:	1ab6      	subcs	r6, r6, r2
   116da:	4675      	movcs	r5, lr
   116dc:	ea40 005c 	orrcs.w	r0, r0, ip, lsr #1
   116e0:	085b      	lsrs	r3, r3, #1
   116e2:	ea4f 0232 	mov.w	r2, r2, rrx
   116e6:	ebb6 0e02 	subs.w	lr, r6, r2
   116ea:	eb75 0e03 	sbcs.w	lr, r5, r3
   116ee:	bf22      	ittt	cs
   116f0:	1ab6      	subcs	r6, r6, r2
   116f2:	4675      	movcs	r5, lr
   116f4:	ea40 009c 	orrcs.w	r0, r0, ip, lsr #2
   116f8:	085b      	lsrs	r3, r3, #1
   116fa:	ea4f 0232 	mov.w	r2, r2, rrx
   116fe:	ebb6 0e02 	subs.w	lr, r6, r2
   11702:	eb75 0e03 	sbcs.w	lr, r5, r3
   11706:	bf22      	ittt	cs
   11708:	1ab6      	subcs	r6, r6, r2
   1170a:	4675      	movcs	r5, lr
   1170c:	ea40 00dc 	orrcs.w	r0, r0, ip, lsr #3
   11710:	ea55 0e06 	orrs.w	lr, r5, r6
   11714:	d018      	beq.n	11748 <__aeabi_ddiv+0x114>
   11716:	ea4f 1505 	mov.w	r5, r5, lsl #4
   1171a:	ea45 7516 	orr.w	r5, r5, r6, lsr #28
   1171e:	ea4f 1606 	mov.w	r6, r6, lsl #4
   11722:	ea4f 03c3 	mov.w	r3, r3, lsl #3
   11726:	ea43 7352 	orr.w	r3, r3, r2, lsr #29
   1172a:	ea4f 02c2 	mov.w	r2, r2, lsl #3
   1172e:	ea5f 1c1c 	movs.w	ip, ip, lsr #4
   11732:	d1c0      	bne.n	116b6 <__aeabi_ddiv+0x82>
   11734:	f411 1f80 	tst.w	r1, #1048576	; 0x100000
   11738:	d10b      	bne.n	11752 <__aeabi_ddiv+0x11e>
   1173a:	ea41 0100 	orr.w	r1, r1, r0
   1173e:	f04f 0000 	mov.w	r0, #0
   11742:	f04f 4c00 	mov.w	ip, #2147483648	; 0x80000000
   11746:	e7b6      	b.n	116b6 <__aeabi_ddiv+0x82>
   11748:	f411 1f80 	tst.w	r1, #1048576	; 0x100000
   1174c:	bf04      	itt	eq
   1174e:	4301      	orreq	r1, r0
   11750:	2000      	moveq	r0, #0
   11752:	f1b4 0cfd 	subs.w	ip, r4, #253	; 0xfd
   11756:	bf88      	it	hi
   11758:	f5bc 6fe0 	cmphi.w	ip, #1792	; 0x700
   1175c:	f63f aeaf 	bhi.w	114be <__aeabi_dmul+0xde>
   11760:	ebb5 0c03 	subs.w	ip, r5, r3
   11764:	bf04      	itt	eq
   11766:	ebb6 0c02 	subseq.w	ip, r6, r2
   1176a:	ea5f 0c50 	movseq.w	ip, r0, lsr #1
   1176e:	f150 0000 	adcs.w	r0, r0, #0
   11772:	eb41 5104 	adc.w	r1, r1, r4, lsl #20
   11776:	bd70      	pop	{r4, r5, r6, pc}
   11778:	f00e 4e00 	and.w	lr, lr, #2147483648	; 0x80000000
   1177c:	ea4e 3111 	orr.w	r1, lr, r1, lsr #12
   11780:	eb14 045c 	adds.w	r4, r4, ip, lsr #1
   11784:	bfc2      	ittt	gt
   11786:	ebd4 050c 	rsbsgt	r5, r4, ip
   1178a:	ea41 5104 	orrgt.w	r1, r1, r4, lsl #20
   1178e:	bd70      	popgt	{r4, r5, r6, pc}
   11790:	f441 1180 	orr.w	r1, r1, #1048576	; 0x100000
   11794:	f04f 0e00 	mov.w	lr, #0
   11798:	3c01      	subs	r4, #1
   1179a:	e690      	b.n	114be <__aeabi_dmul+0xde>
   1179c:	ea45 0e06 	orr.w	lr, r5, r6
   117a0:	e68d      	b.n	114be <__aeabi_dmul+0xde>
   117a2:	ea0c 5513 	and.w	r5, ip, r3, lsr #20
   117a6:	ea94 0f0c 	teq	r4, ip
   117aa:	bf08      	it	eq
   117ac:	ea95 0f0c 	teqeq	r5, ip
   117b0:	f43f af3b 	beq.w	1162a <__aeabi_dmul+0x24a>
   117b4:	ea94 0f0c 	teq	r4, ip
   117b8:	d10a      	bne.n	117d0 <__aeabi_ddiv+0x19c>
   117ba:	ea50 3401 	orrs.w	r4, r0, r1, lsl #12
   117be:	f47f af34 	bne.w	1162a <__aeabi_dmul+0x24a>
   117c2:	ea95 0f0c 	teq	r5, ip
   117c6:	f47f af25 	bne.w	11614 <__aeabi_dmul+0x234>
   117ca:	4610      	mov	r0, r2
   117cc:	4619      	mov	r1, r3
   117ce:	e72c      	b.n	1162a <__aeabi_dmul+0x24a>
   117d0:	ea95 0f0c 	teq	r5, ip
   117d4:	d106      	bne.n	117e4 <__aeabi_ddiv+0x1b0>
   117d6:	ea52 3503 	orrs.w	r5, r2, r3, lsl #12
   117da:	f43f aefd 	beq.w	115d8 <__aeabi_dmul+0x1f8>
   117de:	4610      	mov	r0, r2
   117e0:	4619      	mov	r1, r3
   117e2:	e722      	b.n	1162a <__aeabi_dmul+0x24a>
   117e4:	ea50 0641 	orrs.w	r6, r0, r1, lsl #1
   117e8:	bf18      	it	ne
   117ea:	ea52 0643 	orrsne.w	r6, r2, r3, lsl #1
   117ee:	f47f aec5 	bne.w	1157c <__aeabi_dmul+0x19c>
   117f2:	ea50 0441 	orrs.w	r4, r0, r1, lsl #1
   117f6:	f47f af0d 	bne.w	11614 <__aeabi_dmul+0x234>
   117fa:	ea52 0543 	orrs.w	r5, r2, r3, lsl #1
   117fe:	f47f aeeb 	bne.w	115d8 <__aeabi_dmul+0x1f8>
   11802:	e712      	b.n	1162a <__aeabi_dmul+0x24a>

00011804 <malloc>:
   11804:	4b02      	ldr	r3, [pc, #8]	; (11810 <malloc+0xc>)
   11806:	4601      	mov	r1, r0
   11808:	6818      	ldr	r0, [r3, #0]
   1180a:	f000 b851 	b.w	118b0 <_malloc_r>
   1180e:	bf00      	nop
   11810:	20030000 	.word	0x20030000

00011814 <_free_r>:
   11814:	b538      	push	{r3, r4, r5, lr}
   11816:	4605      	mov	r5, r0
   11818:	2900      	cmp	r1, #0
   1181a:	d045      	beq.n	118a8 <_free_r+0x94>
   1181c:	f851 3c04 	ldr.w	r3, [r1, #-4]
   11820:	1f0c      	subs	r4, r1, #4
   11822:	2b00      	cmp	r3, #0
   11824:	bfb8      	it	lt
   11826:	18e4      	addlt	r4, r4, r3
   11828:	f000 fcfe 	bl	12228 <__malloc_lock>
   1182c:	4a1f      	ldr	r2, [pc, #124]	; (118ac <_free_r+0x98>)
   1182e:	6813      	ldr	r3, [r2, #0]
   11830:	4610      	mov	r0, r2
   11832:	b933      	cbnz	r3, 11842 <_free_r+0x2e>
   11834:	6063      	str	r3, [r4, #4]
   11836:	6014      	str	r4, [r2, #0]
   11838:	4628      	mov	r0, r5
   1183a:	e8bd 4038 	ldmia.w	sp!, {r3, r4, r5, lr}
   1183e:	f000 bcf9 	b.w	12234 <__malloc_unlock>
   11842:	42a3      	cmp	r3, r4
   11844:	d90c      	bls.n	11860 <_free_r+0x4c>
   11846:	6821      	ldr	r1, [r4, #0]
   11848:	1862      	adds	r2, r4, r1
   1184a:	4293      	cmp	r3, r2
   1184c:	bf02      	ittt	eq
   1184e:	681a      	ldreq	r2, [r3, #0]
   11850:	685b      	ldreq	r3, [r3, #4]
   11852:	1852      	addeq	r2, r2, r1
   11854:	6063      	str	r3, [r4, #4]
   11856:	bf08      	it	eq
   11858:	6022      	streq	r2, [r4, #0]
   1185a:	6004      	str	r4, [r0, #0]
   1185c:	e7ec      	b.n	11838 <_free_r+0x24>
   1185e:	4613      	mov	r3, r2
   11860:	685a      	ldr	r2, [r3, #4]
   11862:	b10a      	cbz	r2, 11868 <_free_r+0x54>
   11864:	42a2      	cmp	r2, r4
   11866:	d9fa      	bls.n	1185e <_free_r+0x4a>
   11868:	6819      	ldr	r1, [r3, #0]
   1186a:	1858      	adds	r0, r3, r1
   1186c:	42a0      	cmp	r0, r4
   1186e:	d10b      	bne.n	11888 <_free_r+0x74>
   11870:	6820      	ldr	r0, [r4, #0]
   11872:	4401      	add	r1, r0
   11874:	1858      	adds	r0, r3, r1
   11876:	6019      	str	r1, [r3, #0]
   11878:	4282      	cmp	r2, r0
   1187a:	d1dd      	bne.n	11838 <_free_r+0x24>
   1187c:	6810      	ldr	r0, [r2, #0]
   1187e:	6852      	ldr	r2, [r2, #4]
   11880:	4401      	add	r1, r0
   11882:	605a      	str	r2, [r3, #4]
   11884:	6019      	str	r1, [r3, #0]
   11886:	e7d7      	b.n	11838 <_free_r+0x24>
   11888:	d902      	bls.n	11890 <_free_r+0x7c>
   1188a:	230c      	movs	r3, #12
   1188c:	602b      	str	r3, [r5, #0]
   1188e:	e7d3      	b.n	11838 <_free_r+0x24>
   11890:	6820      	ldr	r0, [r4, #0]
   11892:	1821      	adds	r1, r4, r0
   11894:	428a      	cmp	r2, r1
   11896:	bf02      	ittt	eq
   11898:	6811      	ldreq	r1, [r2, #0]
   1189a:	6852      	ldreq	r2, [r2, #4]
   1189c:	1809      	addeq	r1, r1, r0
   1189e:	6062      	str	r2, [r4, #4]
   118a0:	bf08      	it	eq
   118a2:	6021      	streq	r1, [r4, #0]
   118a4:	605c      	str	r4, [r3, #4]
   118a6:	e7c7      	b.n	11838 <_free_r+0x24>
   118a8:	bd38      	pop	{r3, r4, r5, pc}
   118aa:	bf00      	nop
   118ac:	20030218 	.word	0x20030218

000118b0 <_malloc_r>:
   118b0:	b5f8      	push	{r3, r4, r5, r6, r7, lr}
   118b2:	1ccd      	adds	r5, r1, #3
   118b4:	4606      	mov	r6, r0
   118b6:	f025 0503 	bic.w	r5, r5, #3
   118ba:	3508      	adds	r5, #8
   118bc:	2d0c      	cmp	r5, #12
   118be:	bf38      	it	cc
   118c0:	250c      	movcc	r5, #12
   118c2:	2d00      	cmp	r5, #0
   118c4:	db01      	blt.n	118ca <_malloc_r+0x1a>
   118c6:	42a9      	cmp	r1, r5
   118c8:	d903      	bls.n	118d2 <_malloc_r+0x22>
   118ca:	230c      	movs	r3, #12
   118cc:	6033      	str	r3, [r6, #0]
   118ce:	2000      	movs	r0, #0
   118d0:	bdf8      	pop	{r3, r4, r5, r6, r7, pc}
   118d2:	f000 fca9 	bl	12228 <__malloc_lock>
   118d6:	4921      	ldr	r1, [pc, #132]	; (1195c <_malloc_r+0xac>)
   118d8:	680a      	ldr	r2, [r1, #0]
   118da:	4614      	mov	r4, r2
   118dc:	b99c      	cbnz	r4, 11906 <_malloc_r+0x56>
   118de:	4f20      	ldr	r7, [pc, #128]	; (11960 <_malloc_r+0xb0>)
   118e0:	683b      	ldr	r3, [r7, #0]
   118e2:	b923      	cbnz	r3, 118ee <_malloc_r+0x3e>
   118e4:	4621      	mov	r1, r4
   118e6:	4630      	mov	r0, r6
   118e8:	f000 fb96 	bl	12018 <_sbrk_r>
   118ec:	6038      	str	r0, [r7, #0]
   118ee:	4629      	mov	r1, r5
   118f0:	4630      	mov	r0, r6
   118f2:	f000 fb91 	bl	12018 <_sbrk_r>
   118f6:	1c43      	adds	r3, r0, #1
   118f8:	d123      	bne.n	11942 <_malloc_r+0x92>
   118fa:	230c      	movs	r3, #12
   118fc:	4630      	mov	r0, r6
   118fe:	6033      	str	r3, [r6, #0]
   11900:	f000 fc98 	bl	12234 <__malloc_unlock>
   11904:	e7e3      	b.n	118ce <_malloc_r+0x1e>
   11906:	6823      	ldr	r3, [r4, #0]
   11908:	1b5b      	subs	r3, r3, r5
   1190a:	d417      	bmi.n	1193c <_malloc_r+0x8c>
   1190c:	2b0b      	cmp	r3, #11
   1190e:	d903      	bls.n	11918 <_malloc_r+0x68>
   11910:	6023      	str	r3, [r4, #0]
   11912:	441c      	add	r4, r3
   11914:	6025      	str	r5, [r4, #0]
   11916:	e004      	b.n	11922 <_malloc_r+0x72>
   11918:	6863      	ldr	r3, [r4, #4]
   1191a:	42a2      	cmp	r2, r4
   1191c:	bf0c      	ite	eq
   1191e:	600b      	streq	r3, [r1, #0]
   11920:	6053      	strne	r3, [r2, #4]
   11922:	4630      	mov	r0, r6
   11924:	f000 fc86 	bl	12234 <__malloc_unlock>
   11928:	f104 000b 	add.w	r0, r4, #11
   1192c:	1d23      	adds	r3, r4, #4
   1192e:	f020 0007 	bic.w	r0, r0, #7
   11932:	1ac2      	subs	r2, r0, r3
   11934:	d0cc      	beq.n	118d0 <_malloc_r+0x20>
   11936:	1a1b      	subs	r3, r3, r0
   11938:	50a3      	str	r3, [r4, r2]
   1193a:	e7c9      	b.n	118d0 <_malloc_r+0x20>
   1193c:	4622      	mov	r2, r4
   1193e:	6864      	ldr	r4, [r4, #4]
   11940:	e7cc      	b.n	118dc <_malloc_r+0x2c>
   11942:	1cc4      	adds	r4, r0, #3
   11944:	f024 0403 	bic.w	r4, r4, #3
   11948:	42a0      	cmp	r0, r4
   1194a:	d0e3      	beq.n	11914 <_malloc_r+0x64>
   1194c:	1a21      	subs	r1, r4, r0
   1194e:	4630      	mov	r0, r6
   11950:	f000 fb62 	bl	12018 <_sbrk_r>
   11954:	3001      	adds	r0, #1
   11956:	d1dd      	bne.n	11914 <_malloc_r+0x64>
   11958:	e7cf      	b.n	118fa <_malloc_r+0x4a>
   1195a:	bf00      	nop
   1195c:	20030218 	.word	0x20030218
   11960:	2003021c 	.word	0x2003021c

00011964 <_printf_float>:
   11964:	e92d 4ff0 	stmdb	sp!, {r4, r5, r6, r7, r8, r9, sl, fp, lr}
   11968:	b08d      	sub	sp, #52	; 0x34
   1196a:	460c      	mov	r4, r1
   1196c:	4616      	mov	r6, r2
   1196e:	461f      	mov	r7, r3
   11970:	f8dd 8058 	ldr.w	r8, [sp, #88]	; 0x58
   11974:	4605      	mov	r5, r0
   11976:	f000 fc41 	bl	121fc <_localeconv_r>
   1197a:	6803      	ldr	r3, [r0, #0]
   1197c:	4618      	mov	r0, r3
   1197e:	9306      	str	r3, [sp, #24]
   11980:	f001 fbb9 	bl	130f6 <strlen>
   11984:	2300      	movs	r3, #0
   11986:	9007      	str	r0, [sp, #28]
   11988:	930a      	str	r3, [sp, #40]	; 0x28
   1198a:	f8d8 3000 	ldr.w	r3, [r8]
   1198e:	f894 a018 	ldrb.w	sl, [r4, #24]
   11992:	3307      	adds	r3, #7
   11994:	f8d4 b000 	ldr.w	fp, [r4]
   11998:	f023 0307 	bic.w	r3, r3, #7
   1199c:	f103 0208 	add.w	r2, r3, #8
   119a0:	f8c8 2000 	str.w	r2, [r8]
   119a4:	e9d3 2300 	ldrd	r2, r3, [r3]
   119a8:	e9c4 2312 	strd	r2, r3, [r4, #72]	; 0x48
   119ac:	ed94 7b12 	vldr	d7, [r4, #72]	; 0x48
   119b0:	f04f 32ff 	mov.w	r2, #4294967295
   119b4:	ed8d 7b04 	vstr	d7, [sp, #16]
   119b8:	e9dd 8304 	ldrd	r8, r3, [sp, #16]
   119bc:	f023 4900 	bic.w	r9, r3, #2147483648	; 0x80000000
   119c0:	4640      	mov	r0, r8
   119c2:	4ba8      	ldr	r3, [pc, #672]	; (11c64 <_printf_float+0x300>)
   119c4:	4649      	mov	r1, r9
   119c6:	f001 f8e5 	bl	12b94 <__aeabi_dcmpun>
   119ca:	bb70      	cbnz	r0, 11a2a <_printf_float+0xc6>
   119cc:	f04f 32ff 	mov.w	r2, #4294967295
   119d0:	4ba4      	ldr	r3, [pc, #656]	; (11c64 <_printf_float+0x300>)
   119d2:	4640      	mov	r0, r8
   119d4:	4649      	mov	r1, r9
   119d6:	f001 f8bf 	bl	12b58 <__aeabi_dcmple>
   119da:	bb30      	cbnz	r0, 11a2a <_printf_float+0xc6>
   119dc:	2200      	movs	r2, #0
   119de:	2300      	movs	r3, #0
   119e0:	e9dd 0104 	ldrd	r0, r1, [sp, #16]
   119e4:	f001 f8ae 	bl	12b44 <__aeabi_dcmplt>
   119e8:	b110      	cbz	r0, 119f0 <_printf_float+0x8c>
   119ea:	232d      	movs	r3, #45	; 0x2d
   119ec:	f884 3043 	strb.w	r3, [r4, #67]	; 0x43
   119f0:	4a9d      	ldr	r2, [pc, #628]	; (11c68 <_printf_float+0x304>)
   119f2:	4b9e      	ldr	r3, [pc, #632]	; (11c6c <_printf_float+0x308>)
   119f4:	f1ba 0f47 	cmp.w	sl, #71	; 0x47
   119f8:	bf94      	ite	ls
   119fa:	4690      	movls	r8, r2
   119fc:	4698      	movhi	r8, r3
   119fe:	f04f 0900 	mov.w	r9, #0
   11a02:	2303      	movs	r3, #3
   11a04:	f02b 0204 	bic.w	r2, fp, #4
   11a08:	6123      	str	r3, [r4, #16]
   11a0a:	6022      	str	r2, [r4, #0]
   11a0c:	9700      	str	r7, [sp, #0]
   11a0e:	4633      	mov	r3, r6
   11a10:	aa0b      	add	r2, sp, #44	; 0x2c
   11a12:	4621      	mov	r1, r4
   11a14:	4628      	mov	r0, r5
   11a16:	f001 fab3 	bl	12f80 <_printf_common>
   11a1a:	3001      	adds	r0, #1
   11a1c:	f040 8090 	bne.w	11b40 <_printf_float+0x1dc>
   11a20:	f04f 30ff 	mov.w	r0, #4294967295
   11a24:	b00d      	add	sp, #52	; 0x34
   11a26:	e8bd 8ff0 	ldmia.w	sp!, {r4, r5, r6, r7, r8, r9, sl, fp, pc}
   11a2a:	e9dd 2304 	ldrd	r2, r3, [sp, #16]
   11a2e:	4610      	mov	r0, r2
   11a30:	4619      	mov	r1, r3
   11a32:	f001 f8af 	bl	12b94 <__aeabi_dcmpun>
   11a36:	b160      	cbz	r0, 11a52 <_printf_float+0xee>
   11a38:	2200      	movs	r2, #0
   11a3a:	2300      	movs	r3, #0
   11a3c:	e9dd 0104 	ldrd	r0, r1, [sp, #16]
   11a40:	f001 f880 	bl	12b44 <__aeabi_dcmplt>
   11a44:	b110      	cbz	r0, 11a4c <_printf_float+0xe8>
   11a46:	232d      	movs	r3, #45	; 0x2d
   11a48:	f884 3043 	strb.w	r3, [r4, #67]	; 0x43
   11a4c:	4a88      	ldr	r2, [pc, #544]	; (11c70 <_printf_float+0x30c>)
   11a4e:	4b89      	ldr	r3, [pc, #548]	; (11c74 <_printf_float+0x310>)
   11a50:	e7d0      	b.n	119f4 <_printf_float+0x90>
   11a52:	6863      	ldr	r3, [r4, #4]
   11a54:	f00a 09df 	and.w	r9, sl, #223	; 0xdf
   11a58:	1c5a      	adds	r2, r3, #1
   11a5a:	d13e      	bne.n	11ada <_printf_float+0x176>
   11a5c:	2306      	movs	r3, #6
   11a5e:	6063      	str	r3, [r4, #4]
   11a60:	2300      	movs	r3, #0
   11a62:	f44b 6280 	orr.w	r2, fp, #1024	; 0x400
   11a66:	6861      	ldr	r1, [r4, #4]
   11a68:	4628      	mov	r0, r5
   11a6a:	9303      	str	r3, [sp, #12]
   11a6c:	ab0a      	add	r3, sp, #40	; 0x28
   11a6e:	6022      	str	r2, [r4, #0]
   11a70:	e9cd a301 	strd	sl, r3, [sp, #4]
   11a74:	ab09      	add	r3, sp, #36	; 0x24
   11a76:	ed9d 0b04 	vldr	d0, [sp, #16]
   11a7a:	9300      	str	r3, [sp, #0]
   11a7c:	f10d 0323 	add.w	r3, sp, #35	; 0x23
   11a80:	f001 f9ee 	bl	12e60 <__cvt>
   11a84:	f1b9 0f47 	cmp.w	r9, #71	; 0x47
   11a88:	4680      	mov	r8, r0
   11a8a:	9909      	ldr	r1, [sp, #36]	; 0x24
   11a8c:	d108      	bne.n	11aa0 <_printf_float+0x13c>
   11a8e:	1cc8      	adds	r0, r1, #3
   11a90:	db02      	blt.n	11a98 <_printf_float+0x134>
   11a92:	6863      	ldr	r3, [r4, #4]
   11a94:	4299      	cmp	r1, r3
   11a96:	dd41      	ble.n	11b1c <_printf_float+0x1b8>
   11a98:	f1aa 0a02 	sub.w	sl, sl, #2
   11a9c:	fa5f fa8a 	uxtb.w	sl, sl
   11aa0:	f1ba 0f65 	cmp.w	sl, #101	; 0x65
   11aa4:	d820      	bhi.n	11ae8 <_printf_float+0x184>
   11aa6:	3901      	subs	r1, #1
   11aa8:	4652      	mov	r2, sl
   11aaa:	f104 0050 	add.w	r0, r4, #80	; 0x50
   11aae:	9109      	str	r1, [sp, #36]	; 0x24
   11ab0:	f001 fa33 	bl	12f1a <__exponent>
   11ab4:	9a0a      	ldr	r2, [sp, #40]	; 0x28
   11ab6:	4681      	mov	r9, r0
   11ab8:	1813      	adds	r3, r2, r0
   11aba:	2a01      	cmp	r2, #1
   11abc:	6123      	str	r3, [r4, #16]
   11abe:	dc02      	bgt.n	11ac6 <_printf_float+0x162>
   11ac0:	6822      	ldr	r2, [r4, #0]
   11ac2:	07d2      	lsls	r2, r2, #31
   11ac4:	d501      	bpl.n	11aca <_printf_float+0x166>
   11ac6:	3301      	adds	r3, #1
   11ac8:	6123      	str	r3, [r4, #16]
   11aca:	f89d 3023 	ldrb.w	r3, [sp, #35]	; 0x23
   11ace:	2b00      	cmp	r3, #0
   11ad0:	d09c      	beq.n	11a0c <_printf_float+0xa8>
   11ad2:	232d      	movs	r3, #45	; 0x2d
   11ad4:	f884 3043 	strb.w	r3, [r4, #67]	; 0x43
   11ad8:	e798      	b.n	11a0c <_printf_float+0xa8>
   11ada:	f1b9 0f47 	cmp.w	r9, #71	; 0x47
   11ade:	d1bf      	bne.n	11a60 <_printf_float+0xfc>
   11ae0:	2b00      	cmp	r3, #0
   11ae2:	d1bd      	bne.n	11a60 <_printf_float+0xfc>
   11ae4:	2301      	movs	r3, #1
   11ae6:	e7ba      	b.n	11a5e <_printf_float+0xfa>
   11ae8:	f1ba 0f66 	cmp.w	sl, #102	; 0x66
   11aec:	d118      	bne.n	11b20 <_printf_float+0x1bc>
   11aee:	2900      	cmp	r1, #0
   11af0:	6863      	ldr	r3, [r4, #4]
   11af2:	dd0b      	ble.n	11b0c <_printf_float+0x1a8>
   11af4:	6121      	str	r1, [r4, #16]
   11af6:	b913      	cbnz	r3, 11afe <_printf_float+0x19a>
   11af8:	6822      	ldr	r2, [r4, #0]
   11afa:	07d0      	lsls	r0, r2, #31
   11afc:	d502      	bpl.n	11b04 <_printf_float+0x1a0>
   11afe:	3301      	adds	r3, #1
   11b00:	440b      	add	r3, r1
   11b02:	6123      	str	r3, [r4, #16]
   11b04:	65a1      	str	r1, [r4, #88]	; 0x58
   11b06:	f04f 0900 	mov.w	r9, #0
   11b0a:	e7de      	b.n	11aca <_printf_float+0x166>
   11b0c:	b913      	cbnz	r3, 11b14 <_printf_float+0x1b0>
   11b0e:	6822      	ldr	r2, [r4, #0]
   11b10:	07d2      	lsls	r2, r2, #31
   11b12:	d501      	bpl.n	11b18 <_printf_float+0x1b4>
   11b14:	3302      	adds	r3, #2
   11b16:	e7f4      	b.n	11b02 <_printf_float+0x19e>
   11b18:	2301      	movs	r3, #1
   11b1a:	e7f2      	b.n	11b02 <_printf_float+0x19e>
   11b1c:	f04f 0a67 	mov.w	sl, #103	; 0x67
   11b20:	9b0a      	ldr	r3, [sp, #40]	; 0x28
   11b22:	4299      	cmp	r1, r3
   11b24:	db05      	blt.n	11b32 <_printf_float+0x1ce>
   11b26:	6823      	ldr	r3, [r4, #0]
   11b28:	6121      	str	r1, [r4, #16]
   11b2a:	07d8      	lsls	r0, r3, #31
   11b2c:	d5ea      	bpl.n	11b04 <_printf_float+0x1a0>
   11b2e:	1c4b      	adds	r3, r1, #1
   11b30:	e7e7      	b.n	11b02 <_printf_float+0x19e>
   11b32:	2900      	cmp	r1, #0
   11b34:	bfd4      	ite	le
   11b36:	f1c1 0202 	rsble	r2, r1, #2
   11b3a:	2201      	movgt	r2, #1
   11b3c:	4413      	add	r3, r2
   11b3e:	e7e0      	b.n	11b02 <_printf_float+0x19e>
   11b40:	6823      	ldr	r3, [r4, #0]
   11b42:	055a      	lsls	r2, r3, #21
   11b44:	d407      	bmi.n	11b56 <_printf_float+0x1f2>
   11b46:	6923      	ldr	r3, [r4, #16]
   11b48:	4642      	mov	r2, r8
   11b4a:	4631      	mov	r1, r6
   11b4c:	4628      	mov	r0, r5
   11b4e:	47b8      	blx	r7
   11b50:	3001      	adds	r0, #1
   11b52:	d12b      	bne.n	11bac <_printf_float+0x248>
   11b54:	e764      	b.n	11a20 <_printf_float+0xbc>
   11b56:	f1ba 0f65 	cmp.w	sl, #101	; 0x65
   11b5a:	f240 80dc 	bls.w	11d16 <_printf_float+0x3b2>
   11b5e:	2200      	movs	r2, #0
   11b60:	2300      	movs	r3, #0
   11b62:	e9d4 0112 	ldrd	r0, r1, [r4, #72]	; 0x48
   11b66:	f000 ffe3 	bl	12b30 <__aeabi_dcmpeq>
   11b6a:	2800      	cmp	r0, #0
   11b6c:	d033      	beq.n	11bd6 <_printf_float+0x272>
   11b6e:	2301      	movs	r3, #1
   11b70:	4a41      	ldr	r2, [pc, #260]	; (11c78 <_printf_float+0x314>)
   11b72:	4631      	mov	r1, r6
   11b74:	4628      	mov	r0, r5
   11b76:	47b8      	blx	r7
   11b78:	3001      	adds	r0, #1
   11b7a:	f43f af51 	beq.w	11a20 <_printf_float+0xbc>
   11b7e:	e9dd 2309 	ldrd	r2, r3, [sp, #36]	; 0x24
   11b82:	429a      	cmp	r2, r3
   11b84:	db02      	blt.n	11b8c <_printf_float+0x228>
   11b86:	6823      	ldr	r3, [r4, #0]
   11b88:	07d8      	lsls	r0, r3, #31
   11b8a:	d50f      	bpl.n	11bac <_printf_float+0x248>
   11b8c:	4631      	mov	r1, r6
   11b8e:	4628      	mov	r0, r5
   11b90:	e9dd 2306 	ldrd	r2, r3, [sp, #24]
   11b94:	47b8      	blx	r7
   11b96:	3001      	adds	r0, #1
   11b98:	f43f af42 	beq.w	11a20 <_printf_float+0xbc>
   11b9c:	f04f 0800 	mov.w	r8, #0
   11ba0:	f104 091a 	add.w	r9, r4, #26
   11ba4:	9b0a      	ldr	r3, [sp, #40]	; 0x28
   11ba6:	3b01      	subs	r3, #1
   11ba8:	4543      	cmp	r3, r8
   11baa:	dc09      	bgt.n	11bc0 <_printf_float+0x25c>
   11bac:	6823      	ldr	r3, [r4, #0]
   11bae:	079b      	lsls	r3, r3, #30
   11bb0:	f100 8101 	bmi.w	11db6 <_printf_float+0x452>
   11bb4:	68e0      	ldr	r0, [r4, #12]
   11bb6:	9b0b      	ldr	r3, [sp, #44]	; 0x2c
   11bb8:	4298      	cmp	r0, r3
   11bba:	bfb8      	it	lt
   11bbc:	4618      	movlt	r0, r3
   11bbe:	e731      	b.n	11a24 <_printf_float+0xc0>
   11bc0:	2301      	movs	r3, #1
   11bc2:	464a      	mov	r2, r9
   11bc4:	4631      	mov	r1, r6
   11bc6:	4628      	mov	r0, r5
   11bc8:	47b8      	blx	r7
   11bca:	3001      	adds	r0, #1
   11bcc:	f43f af28 	beq.w	11a20 <_printf_float+0xbc>
   11bd0:	f108 0801 	add.w	r8, r8, #1
   11bd4:	e7e6      	b.n	11ba4 <_printf_float+0x240>
   11bd6:	9b09      	ldr	r3, [sp, #36]	; 0x24
   11bd8:	2b00      	cmp	r3, #0
   11bda:	dc2b      	bgt.n	11c34 <_printf_float+0x2d0>
   11bdc:	2301      	movs	r3, #1
   11bde:	4a26      	ldr	r2, [pc, #152]	; (11c78 <_printf_float+0x314>)
   11be0:	4631      	mov	r1, r6
   11be2:	4628      	mov	r0, r5
   11be4:	47b8      	blx	r7
   11be6:	3001      	adds	r0, #1
   11be8:	f43f af1a 	beq.w	11a20 <_printf_float+0xbc>
   11bec:	e9dd 2309 	ldrd	r2, r3, [sp, #36]	; 0x24
   11bf0:	4313      	orrs	r3, r2
   11bf2:	d102      	bne.n	11bfa <_printf_float+0x296>
   11bf4:	6823      	ldr	r3, [r4, #0]
   11bf6:	07d9      	lsls	r1, r3, #31
   11bf8:	d5d8      	bpl.n	11bac <_printf_float+0x248>
   11bfa:	4631      	mov	r1, r6
   11bfc:	4628      	mov	r0, r5
   11bfe:	e9dd 2306 	ldrd	r2, r3, [sp, #24]
   11c02:	47b8      	blx	r7
   11c04:	3001      	adds	r0, #1
   11c06:	f43f af0b 	beq.w	11a20 <_printf_float+0xbc>
   11c0a:	f04f 0900 	mov.w	r9, #0
   11c0e:	f104 0a1a 	add.w	sl, r4, #26
   11c12:	9b09      	ldr	r3, [sp, #36]	; 0x24
   11c14:	425b      	negs	r3, r3
   11c16:	454b      	cmp	r3, r9
   11c18:	dc01      	bgt.n	11c1e <_printf_float+0x2ba>
   11c1a:	9b0a      	ldr	r3, [sp, #40]	; 0x28
   11c1c:	e794      	b.n	11b48 <_printf_float+0x1e4>
   11c1e:	2301      	movs	r3, #1
   11c20:	4652      	mov	r2, sl
   11c22:	4631      	mov	r1, r6
   11c24:	4628      	mov	r0, r5
   11c26:	47b8      	blx	r7
   11c28:	3001      	adds	r0, #1
   11c2a:	f43f aef9 	beq.w	11a20 <_printf_float+0xbc>
   11c2e:	f109 0901 	add.w	r9, r9, #1
   11c32:	e7ee      	b.n	11c12 <_printf_float+0x2ae>
   11c34:	9a0a      	ldr	r2, [sp, #40]	; 0x28
   11c36:	6da3      	ldr	r3, [r4, #88]	; 0x58
   11c38:	429a      	cmp	r2, r3
   11c3a:	bfa8      	it	ge
   11c3c:	461a      	movge	r2, r3
   11c3e:	2a00      	cmp	r2, #0
   11c40:	4691      	mov	r9, r2
   11c42:	dd07      	ble.n	11c54 <_printf_float+0x2f0>
   11c44:	4613      	mov	r3, r2
   11c46:	4631      	mov	r1, r6
   11c48:	4642      	mov	r2, r8
   11c4a:	4628      	mov	r0, r5
   11c4c:	47b8      	blx	r7
   11c4e:	3001      	adds	r0, #1
   11c50:	f43f aee6 	beq.w	11a20 <_printf_float+0xbc>
   11c54:	f104 031a 	add.w	r3, r4, #26
   11c58:	f04f 0b00 	mov.w	fp, #0
   11c5c:	ea29 79e9 	bic.w	r9, r9, r9, asr #31
   11c60:	9304      	str	r3, [sp, #16]
   11c62:	e015      	b.n	11c90 <_printf_float+0x32c>
   11c64:	7fefffff 	.word	0x7fefffff
   11c68:	00014138 	.word	0x00014138
   11c6c:	0001413c 	.word	0x0001413c
   11c70:	00014140 	.word	0x00014140
   11c74:	00014144 	.word	0x00014144
   11c78:	00014148 	.word	0x00014148
   11c7c:	2301      	movs	r3, #1
   11c7e:	9a04      	ldr	r2, [sp, #16]
   11c80:	4631      	mov	r1, r6
   11c82:	4628      	mov	r0, r5
   11c84:	47b8      	blx	r7
   11c86:	3001      	adds	r0, #1
   11c88:	f43f aeca 	beq.w	11a20 <_printf_float+0xbc>
   11c8c:	f10b 0b01 	add.w	fp, fp, #1
   11c90:	f8d4 a058 	ldr.w	sl, [r4, #88]	; 0x58
   11c94:	ebaa 0309 	sub.w	r3, sl, r9
   11c98:	455b      	cmp	r3, fp
   11c9a:	dcef      	bgt.n	11c7c <_printf_float+0x318>
   11c9c:	e9dd 2309 	ldrd	r2, r3, [sp, #36]	; 0x24
   11ca0:	429a      	cmp	r2, r3
   11ca2:	db1b      	blt.n	11cdc <_printf_float+0x378>
   11ca4:	6823      	ldr	r3, [r4, #0]
   11ca6:	07da      	lsls	r2, r3, #31
   11ca8:	d418      	bmi.n	11cdc <_printf_float+0x378>
   11caa:	e9dd 2309 	ldrd	r2, r3, [sp, #36]	; 0x24
   11cae:	4592      	cmp	sl, r2
   11cb0:	db1c      	blt.n	11cec <_printf_float+0x388>
   11cb2:	eba3 090a 	sub.w	r9, r3, sl
   11cb6:	f1b9 0f00 	cmp.w	r9, #0
   11cba:	dd08      	ble.n	11cce <_printf_float+0x36a>
   11cbc:	464b      	mov	r3, r9
   11cbe:	eb08 020a 	add.w	r2, r8, sl
   11cc2:	4631      	mov	r1, r6
   11cc4:	4628      	mov	r0, r5
   11cc6:	47b8      	blx	r7
   11cc8:	3001      	adds	r0, #1
   11cca:	f43f aea9 	beq.w	11a20 <_printf_float+0xbc>
   11cce:	f04f 0800 	mov.w	r8, #0
   11cd2:	ea29 79e9 	bic.w	r9, r9, r9, asr #31
   11cd6:	f104 0a1a 	add.w	sl, r4, #26
   11cda:	e014      	b.n	11d06 <_printf_float+0x3a2>
   11cdc:	e9dd 2306 	ldrd	r2, r3, [sp, #24]
   11ce0:	4631      	mov	r1, r6
   11ce2:	4628      	mov	r0, r5
   11ce4:	47b8      	blx	r7
   11ce6:	3001      	adds	r0, #1
   11ce8:	d1df      	bne.n	11caa <_printf_float+0x346>
   11cea:	e699      	b.n	11a20 <_printf_float+0xbc>
   11cec:	eba3 0902 	sub.w	r9, r3, r2
   11cf0:	e7e1      	b.n	11cb6 <_printf_float+0x352>
   11cf2:	2301      	movs	r3, #1
   11cf4:	4652      	mov	r2, sl
   11cf6:	4631      	mov	r1, r6
   11cf8:	4628      	mov	r0, r5
   11cfa:	47b8      	blx	r7
   11cfc:	3001      	adds	r0, #1
   11cfe:	f43f ae8f 	beq.w	11a20 <_printf_float+0xbc>
   11d02:	f108 0801 	add.w	r8, r8, #1
   11d06:	e9dd 2309 	ldrd	r2, r3, [sp, #36]	; 0x24
   11d0a:	1a9b      	subs	r3, r3, r2
   11d0c:	eba3 0309 	sub.w	r3, r3, r9
   11d10:	4543      	cmp	r3, r8
   11d12:	dcee      	bgt.n	11cf2 <_printf_float+0x38e>
   11d14:	e74a      	b.n	11bac <_printf_float+0x248>
   11d16:	9a0a      	ldr	r2, [sp, #40]	; 0x28
   11d18:	2a01      	cmp	r2, #1
   11d1a:	dc01      	bgt.n	11d20 <_printf_float+0x3bc>
   11d1c:	07db      	lsls	r3, r3, #31
   11d1e:	d537      	bpl.n	11d90 <_printf_float+0x42c>
   11d20:	2301      	movs	r3, #1
   11d22:	4642      	mov	r2, r8
   11d24:	4631      	mov	r1, r6
   11d26:	4628      	mov	r0, r5
   11d28:	47b8      	blx	r7
   11d2a:	3001      	adds	r0, #1
   11d2c:	f43f ae78 	beq.w	11a20 <_printf_float+0xbc>
   11d30:	4631      	mov	r1, r6
   11d32:	4628      	mov	r0, r5
   11d34:	e9dd 2306 	ldrd	r2, r3, [sp, #24]
   11d38:	47b8      	blx	r7
   11d3a:	3001      	adds	r0, #1
   11d3c:	f43f ae70 	beq.w	11a20 <_printf_float+0xbc>
   11d40:	2200      	movs	r2, #0
   11d42:	2300      	movs	r3, #0
   11d44:	e9d4 0112 	ldrd	r0, r1, [r4, #72]	; 0x48
   11d48:	f000 fef2 	bl	12b30 <__aeabi_dcmpeq>
   11d4c:	b9d8      	cbnz	r0, 11d86 <_printf_float+0x422>
   11d4e:	9b0a      	ldr	r3, [sp, #40]	; 0x28
   11d50:	f108 0201 	add.w	r2, r8, #1
   11d54:	3b01      	subs	r3, #1
   11d56:	4631      	mov	r1, r6
   11d58:	4628      	mov	r0, r5
   11d5a:	47b8      	blx	r7
   11d5c:	3001      	adds	r0, #1
   11d5e:	d10e      	bne.n	11d7e <_printf_float+0x41a>
   11d60:	e65e      	b.n	11a20 <_printf_float+0xbc>
   11d62:	2301      	movs	r3, #1
   11d64:	4652      	mov	r2, sl
   11d66:	4631      	mov	r1, r6
   11d68:	4628      	mov	r0, r5
   11d6a:	47b8      	blx	r7
   11d6c:	3001      	adds	r0, #1
   11d6e:	f43f ae57 	beq.w	11a20 <_printf_float+0xbc>
   11d72:	f108 0801 	add.w	r8, r8, #1
   11d76:	9b0a      	ldr	r3, [sp, #40]	; 0x28
   11d78:	3b01      	subs	r3, #1
   11d7a:	4543      	cmp	r3, r8
   11d7c:	dcf1      	bgt.n	11d62 <_printf_float+0x3fe>
   11d7e:	464b      	mov	r3, r9
   11d80:	f104 0250 	add.w	r2, r4, #80	; 0x50
   11d84:	e6e1      	b.n	11b4a <_printf_float+0x1e6>
   11d86:	f04f 0800 	mov.w	r8, #0
   11d8a:	f104 0a1a 	add.w	sl, r4, #26
   11d8e:	e7f2      	b.n	11d76 <_printf_float+0x412>
   11d90:	2301      	movs	r3, #1
   11d92:	4642      	mov	r2, r8
   11d94:	e7df      	b.n	11d56 <_printf_float+0x3f2>
   11d96:	2301      	movs	r3, #1
   11d98:	464a      	mov	r2, r9
   11d9a:	4631      	mov	r1, r6
   11d9c:	4628      	mov	r0, r5
   11d9e:	47b8      	blx	r7
   11da0:	3001      	adds	r0, #1
   11da2:	f43f ae3d 	beq.w	11a20 <_printf_float+0xbc>
   11da6:	f108 0801 	add.w	r8, r8, #1
   11daa:	68e3      	ldr	r3, [r4, #12]
   11dac:	9a0b      	ldr	r2, [sp, #44]	; 0x2c
   11dae:	1a9b      	subs	r3, r3, r2
   11db0:	4543      	cmp	r3, r8
   11db2:	dcf0      	bgt.n	11d96 <_printf_float+0x432>
   11db4:	e6fe      	b.n	11bb4 <_printf_float+0x250>
   11db6:	f04f 0800 	mov.w	r8, #0
   11dba:	f104 0919 	add.w	r9, r4, #25
   11dbe:	e7f4      	b.n	11daa <_printf_float+0x446>

00011dc0 <_printf_i>:
   11dc0:	e92d 43f0 	stmdb	sp!, {r4, r5, r6, r7, r8, r9, lr}
   11dc4:	4606      	mov	r6, r0
   11dc6:	460c      	mov	r4, r1
   11dc8:	f101 0043 	add.w	r0, r1, #67	; 0x43
   11dcc:	7e09      	ldrb	r1, [r1, #24]
   11dce:	b085      	sub	sp, #20
   11dd0:	4698      	mov	r8, r3
   11dd2:	296e      	cmp	r1, #110	; 0x6e
   11dd4:	4617      	mov	r7, r2
   11dd6:	9b0c      	ldr	r3, [sp, #48]	; 0x30
   11dd8:	f000 80ba 	beq.w	11f50 <_printf_i+0x190>
   11ddc:	d824      	bhi.n	11e28 <_printf_i+0x68>
   11dde:	2963      	cmp	r1, #99	; 0x63
   11de0:	d039      	beq.n	11e56 <_printf_i+0x96>
   11de2:	d80a      	bhi.n	11dfa <_printf_i+0x3a>
   11de4:	2900      	cmp	r1, #0
   11de6:	f000 80c3 	beq.w	11f70 <_printf_i+0x1b0>
   11dea:	2958      	cmp	r1, #88	; 0x58
   11dec:	f000 8091 	beq.w	11f12 <_printf_i+0x152>
   11df0:	f104 0542 	add.w	r5, r4, #66	; 0x42
   11df4:	f884 1042 	strb.w	r1, [r4, #66]	; 0x42
   11df8:	e035      	b.n	11e66 <_printf_i+0xa6>
   11dfa:	2964      	cmp	r1, #100	; 0x64
   11dfc:	d001      	beq.n	11e02 <_printf_i+0x42>
   11dfe:	2969      	cmp	r1, #105	; 0x69
   11e00:	d1f6      	bne.n	11df0 <_printf_i+0x30>
   11e02:	6825      	ldr	r5, [r4, #0]
   11e04:	681a      	ldr	r2, [r3, #0]
   11e06:	f015 0f80 	tst.w	r5, #128	; 0x80
   11e0a:	f102 0104 	add.w	r1, r2, #4
   11e0e:	d02c      	beq.n	11e6a <_printf_i+0xaa>
   11e10:	6812      	ldr	r2, [r2, #0]
   11e12:	6019      	str	r1, [r3, #0]
   11e14:	2a00      	cmp	r2, #0
   11e16:	da03      	bge.n	11e20 <_printf_i+0x60>
   11e18:	232d      	movs	r3, #45	; 0x2d
   11e1a:	4252      	negs	r2, r2
   11e1c:	f884 3043 	strb.w	r3, [r4, #67]	; 0x43
   11e20:	f8df c1bc 	ldr.w	ip, [pc, #444]	; 11fe0 <_printf_i+0x220>
   11e24:	230a      	movs	r3, #10
   11e26:	e03f      	b.n	11ea8 <_printf_i+0xe8>
   11e28:	2973      	cmp	r1, #115	; 0x73
   11e2a:	f000 80a5 	beq.w	11f78 <_printf_i+0x1b8>
   11e2e:	d808      	bhi.n	11e42 <_printf_i+0x82>
   11e30:	296f      	cmp	r1, #111	; 0x6f
   11e32:	d021      	beq.n	11e78 <_printf_i+0xb8>
   11e34:	2970      	cmp	r1, #112	; 0x70
   11e36:	d1db      	bne.n	11df0 <_printf_i+0x30>
   11e38:	6822      	ldr	r2, [r4, #0]
   11e3a:	f042 0220 	orr.w	r2, r2, #32
   11e3e:	6022      	str	r2, [r4, #0]
   11e40:	e003      	b.n	11e4a <_printf_i+0x8a>
   11e42:	2975      	cmp	r1, #117	; 0x75
   11e44:	d018      	beq.n	11e78 <_printf_i+0xb8>
   11e46:	2978      	cmp	r1, #120	; 0x78
   11e48:	d1d2      	bne.n	11df0 <_printf_i+0x30>
   11e4a:	2278      	movs	r2, #120	; 0x78
   11e4c:	f8df c194 	ldr.w	ip, [pc, #404]	; 11fe4 <_printf_i+0x224>
   11e50:	f884 2045 	strb.w	r2, [r4, #69]	; 0x45
   11e54:	e061      	b.n	11f1a <_printf_i+0x15a>
   11e56:	681a      	ldr	r2, [r3, #0]
   11e58:	f104 0542 	add.w	r5, r4, #66	; 0x42
   11e5c:	1d11      	adds	r1, r2, #4
   11e5e:	6019      	str	r1, [r3, #0]
   11e60:	6813      	ldr	r3, [r2, #0]
   11e62:	f884 3042 	strb.w	r3, [r4, #66]	; 0x42
   11e66:	2301      	movs	r3, #1
   11e68:	e093      	b.n	11f92 <_printf_i+0x1d2>
   11e6a:	6812      	ldr	r2, [r2, #0]
   11e6c:	f015 0f40 	tst.w	r5, #64	; 0x40
   11e70:	6019      	str	r1, [r3, #0]
   11e72:	bf18      	it	ne
   11e74:	b212      	sxthne	r2, r2
   11e76:	e7cd      	b.n	11e14 <_printf_i+0x54>
   11e78:	f8d4 c000 	ldr.w	ip, [r4]
   11e7c:	681a      	ldr	r2, [r3, #0]
   11e7e:	f01c 0f80 	tst.w	ip, #128	; 0x80
   11e82:	f102 0504 	add.w	r5, r2, #4
   11e86:	601d      	str	r5, [r3, #0]
   11e88:	d001      	beq.n	11e8e <_printf_i+0xce>
   11e8a:	6812      	ldr	r2, [r2, #0]
   11e8c:	e003      	b.n	11e96 <_printf_i+0xd6>
   11e8e:	f01c 0f40 	tst.w	ip, #64	; 0x40
   11e92:	d0fa      	beq.n	11e8a <_printf_i+0xca>
   11e94:	8812      	ldrh	r2, [r2, #0]
   11e96:	296f      	cmp	r1, #111	; 0x6f
   11e98:	f8df c144 	ldr.w	ip, [pc, #324]	; 11fe0 <_printf_i+0x220>
   11e9c:	bf0c      	ite	eq
   11e9e:	2308      	moveq	r3, #8
   11ea0:	230a      	movne	r3, #10
   11ea2:	2100      	movs	r1, #0
   11ea4:	f884 1043 	strb.w	r1, [r4, #67]	; 0x43
   11ea8:	6865      	ldr	r5, [r4, #4]
   11eaa:	2d00      	cmp	r5, #0
   11eac:	60a5      	str	r5, [r4, #8]
   11eae:	bfa2      	ittt	ge
   11eb0:	6821      	ldrge	r1, [r4, #0]
   11eb2:	f021 0104 	bicge.w	r1, r1, #4
   11eb6:	6021      	strge	r1, [r4, #0]
   11eb8:	b90a      	cbnz	r2, 11ebe <_printf_i+0xfe>
   11eba:	2d00      	cmp	r5, #0
   11ebc:	d046      	beq.n	11f4c <_printf_i+0x18c>
   11ebe:	4605      	mov	r5, r0
   11ec0:	4293      	cmp	r3, r2
   11ec2:	fbb2 f1f3 	udiv	r1, r2, r3
   11ec6:	fb03 2e11 	mls	lr, r3, r1, r2
   11eca:	f81c e00e 	ldrb.w	lr, [ip, lr]
   11ece:	f805 ed01 	strb.w	lr, [r5, #-1]!
   11ed2:	d939      	bls.n	11f48 <_printf_i+0x188>
   11ed4:	2b08      	cmp	r3, #8
   11ed6:	d10b      	bne.n	11ef0 <_printf_i+0x130>
   11ed8:	6823      	ldr	r3, [r4, #0]
   11eda:	07da      	lsls	r2, r3, #31
   11edc:	d508      	bpl.n	11ef0 <_printf_i+0x130>
   11ede:	6923      	ldr	r3, [r4, #16]
   11ee0:	6862      	ldr	r2, [r4, #4]
   11ee2:	429a      	cmp	r2, r3
   11ee4:	bfde      	ittt	le
   11ee6:	2330      	movle	r3, #48	; 0x30
   11ee8:	f805 3c01 	strble.w	r3, [r5, #-1]
   11eec:	f105 35ff 	addle.w	r5, r5, #4294967295
   11ef0:	1b40      	subs	r0, r0, r5
   11ef2:	6120      	str	r0, [r4, #16]
   11ef4:	f8cd 8000 	str.w	r8, [sp]
   11ef8:	463b      	mov	r3, r7
   11efa:	aa03      	add	r2, sp, #12
   11efc:	4621      	mov	r1, r4
   11efe:	4630      	mov	r0, r6
   11f00:	f001 f83e 	bl	12f80 <_printf_common>
   11f04:	3001      	adds	r0, #1
   11f06:	d149      	bne.n	11f9c <_printf_i+0x1dc>
   11f08:	f04f 30ff 	mov.w	r0, #4294967295
   11f0c:	b005      	add	sp, #20
   11f0e:	e8bd 83f0 	ldmia.w	sp!, {r4, r5, r6, r7, r8, r9, pc}
   11f12:	f8df c0cc 	ldr.w	ip, [pc, #204]	; 11fe0 <_printf_i+0x220>
   11f16:	f884 1045 	strb.w	r1, [r4, #69]	; 0x45
   11f1a:	681d      	ldr	r5, [r3, #0]
   11f1c:	6821      	ldr	r1, [r4, #0]
   11f1e:	f855 2b04 	ldr.w	r2, [r5], #4
   11f22:	601d      	str	r5, [r3, #0]
   11f24:	060d      	lsls	r5, r1, #24
   11f26:	d50b      	bpl.n	11f40 <_printf_i+0x180>
   11f28:	07cd      	lsls	r5, r1, #31
   11f2a:	bf44      	itt	mi
   11f2c:	f041 0120 	orrmi.w	r1, r1, #32
   11f30:	6021      	strmi	r1, [r4, #0]
   11f32:	b91a      	cbnz	r2, 11f3c <_printf_i+0x17c>
   11f34:	6823      	ldr	r3, [r4, #0]
   11f36:	f023 0320 	bic.w	r3, r3, #32
   11f3a:	6023      	str	r3, [r4, #0]
   11f3c:	2310      	movs	r3, #16
   11f3e:	e7b0      	b.n	11ea2 <_printf_i+0xe2>
   11f40:	064b      	lsls	r3, r1, #25
   11f42:	bf48      	it	mi
   11f44:	b292      	uxthmi	r2, r2
   11f46:	e7ef      	b.n	11f28 <_printf_i+0x168>
   11f48:	460a      	mov	r2, r1
   11f4a:	e7b9      	b.n	11ec0 <_printf_i+0x100>
   11f4c:	4605      	mov	r5, r0
   11f4e:	e7c1      	b.n	11ed4 <_printf_i+0x114>
   11f50:	681a      	ldr	r2, [r3, #0]
   11f52:	f8d4 c000 	ldr.w	ip, [r4]
   11f56:	1d15      	adds	r5, r2, #4
   11f58:	6961      	ldr	r1, [r4, #20]
   11f5a:	f01c 0f80 	tst.w	ip, #128	; 0x80
   11f5e:	601d      	str	r5, [r3, #0]
   11f60:	6813      	ldr	r3, [r2, #0]
   11f62:	d001      	beq.n	11f68 <_printf_i+0x1a8>
   11f64:	6019      	str	r1, [r3, #0]
   11f66:	e003      	b.n	11f70 <_printf_i+0x1b0>
   11f68:	f01c 0f40 	tst.w	ip, #64	; 0x40
   11f6c:	d0fa      	beq.n	11f64 <_printf_i+0x1a4>
   11f6e:	8019      	strh	r1, [r3, #0]
   11f70:	2300      	movs	r3, #0
   11f72:	4605      	mov	r5, r0
   11f74:	6123      	str	r3, [r4, #16]
   11f76:	e7bd      	b.n	11ef4 <_printf_i+0x134>
   11f78:	681a      	ldr	r2, [r3, #0]
   11f7a:	1d11      	adds	r1, r2, #4
   11f7c:	6019      	str	r1, [r3, #0]
   11f7e:	2100      	movs	r1, #0
   11f80:	6815      	ldr	r5, [r2, #0]
   11f82:	6862      	ldr	r2, [r4, #4]
   11f84:	4628      	mov	r0, r5
   11f86:	f001 f983 	bl	13290 <memchr>
   11f8a:	b108      	cbz	r0, 11f90 <_printf_i+0x1d0>
   11f8c:	1b40      	subs	r0, r0, r5
   11f8e:	6060      	str	r0, [r4, #4]
   11f90:	6863      	ldr	r3, [r4, #4]
   11f92:	6123      	str	r3, [r4, #16]
   11f94:	2300      	movs	r3, #0
   11f96:	f884 3043 	strb.w	r3, [r4, #67]	; 0x43
   11f9a:	e7ab      	b.n	11ef4 <_printf_i+0x134>
   11f9c:	6923      	ldr	r3, [r4, #16]
   11f9e:	462a      	mov	r2, r5
   11fa0:	4639      	mov	r1, r7
   11fa2:	4630      	mov	r0, r6
   11fa4:	47c0      	blx	r8
   11fa6:	3001      	adds	r0, #1
   11fa8:	d0ae      	beq.n	11f08 <_printf_i+0x148>
   11faa:	6823      	ldr	r3, [r4, #0]
   11fac:	079b      	lsls	r3, r3, #30
   11fae:	d413      	bmi.n	11fd8 <_printf_i+0x218>
   11fb0:	68e0      	ldr	r0, [r4, #12]
   11fb2:	9b03      	ldr	r3, [sp, #12]
   11fb4:	4298      	cmp	r0, r3
   11fb6:	bfb8      	it	lt
   11fb8:	4618      	movlt	r0, r3
   11fba:	e7a7      	b.n	11f0c <_printf_i+0x14c>
   11fbc:	2301      	movs	r3, #1
   11fbe:	464a      	mov	r2, r9
   11fc0:	4639      	mov	r1, r7
   11fc2:	4630      	mov	r0, r6
   11fc4:	47c0      	blx	r8
   11fc6:	3001      	adds	r0, #1
   11fc8:	d09e      	beq.n	11f08 <_printf_i+0x148>
   11fca:	3501      	adds	r5, #1
   11fcc:	68e3      	ldr	r3, [r4, #12]
   11fce:	9a03      	ldr	r2, [sp, #12]
   11fd0:	1a9b      	subs	r3, r3, r2
   11fd2:	42ab      	cmp	r3, r5
   11fd4:	dcf2      	bgt.n	11fbc <_printf_i+0x1fc>
   11fd6:	e7eb      	b.n	11fb0 <_printf_i+0x1f0>
   11fd8:	2500      	movs	r5, #0
   11fda:	f104 0919 	add.w	r9, r4, #25
   11fde:	e7f5      	b.n	11fcc <_printf_i+0x20c>
   11fe0:	0001414a 	.word	0x0001414a
   11fe4:	0001415b 	.word	0x0001415b

00011fe8 <iprintf>:
   11fe8:	b40f      	push	{r0, r1, r2, r3}
   11fea:	4b0a      	ldr	r3, [pc, #40]	; (12014 <iprintf+0x2c>)
   11fec:	b513      	push	{r0, r1, r4, lr}
   11fee:	681c      	ldr	r4, [r3, #0]
   11ff0:	b124      	cbz	r4, 11ffc <iprintf+0x14>
   11ff2:	69a3      	ldr	r3, [r4, #24]
   11ff4:	b913      	cbnz	r3, 11ffc <iprintf+0x14>
   11ff6:	4620      	mov	r0, r4
   11ff8:	f000 f882 	bl	12100 <__sinit>
   11ffc:	ab05      	add	r3, sp, #20
   11ffe:	9a04      	ldr	r2, [sp, #16]
   12000:	68a1      	ldr	r1, [r4, #8]
   12002:	4620      	mov	r0, r4
   12004:	9301      	str	r3, [sp, #4]
   12006:	f000 f969 	bl	122dc <_vfiprintf_r>
   1200a:	b002      	add	sp, #8
   1200c:	e8bd 4010 	ldmia.w	sp!, {r4, lr}
   12010:	b004      	add	sp, #16
   12012:	4770      	bx	lr
   12014:	20030000 	.word	0x20030000

00012018 <_sbrk_r>:
   12018:	b538      	push	{r3, r4, r5, lr}
   1201a:	2300      	movs	r3, #0
   1201c:	4c05      	ldr	r4, [pc, #20]	; (12034 <_sbrk_r+0x1c>)
   1201e:	4605      	mov	r5, r0
   12020:	4608      	mov	r0, r1
   12022:	6023      	str	r3, [r4, #0]
   12024:	f000 fc76 	bl	12914 <_sbrk>
   12028:	1c43      	adds	r3, r0, #1
   1202a:	d102      	bne.n	12032 <_sbrk_r+0x1a>
   1202c:	6823      	ldr	r3, [r4, #0]
   1202e:	b103      	cbz	r3, 12032 <_sbrk_r+0x1a>
   12030:	602b      	str	r3, [r5, #0]
   12032:	bd38      	pop	{r3, r4, r5, pc}
   12034:	2003025c 	.word	0x2003025c

00012038 <_write_r>:
   12038:	b538      	push	{r3, r4, r5, lr}
   1203a:	4605      	mov	r5, r0
   1203c:	4c06      	ldr	r4, [pc, #24]	; (12058 <_write_r+0x20>)
   1203e:	4608      	mov	r0, r1
   12040:	4611      	mov	r1, r2
   12042:	2200      	movs	r2, #0
   12044:	6022      	str	r2, [r4, #0]
   12046:	461a      	mov	r2, r3
   12048:	f001 fcb2 	bl	139b0 <_write>
   1204c:	1c43      	adds	r3, r0, #1
   1204e:	d102      	bne.n	12056 <_write_r+0x1e>
   12050:	6823      	ldr	r3, [r4, #0]
   12052:	b103      	cbz	r3, 12056 <_write_r+0x1e>
   12054:	602b      	str	r3, [r5, #0]
   12056:	bd38      	pop	{r3, r4, r5, pc}
   12058:	2003025c 	.word	0x2003025c

0001205c <_close_r>:
   1205c:	b538      	push	{r3, r4, r5, lr}
   1205e:	2300      	movs	r3, #0
   12060:	4c05      	ldr	r4, [pc, #20]	; (12078 <_close_r+0x1c>)
   12062:	4605      	mov	r5, r0
   12064:	4608      	mov	r0, r1
   12066:	6023      	str	r3, [r4, #0]
   12068:	f000 fcda 	bl	12a20 <_close>
   1206c:	1c43      	adds	r3, r0, #1
   1206e:	d102      	bne.n	12076 <_close_r+0x1a>
   12070:	6823      	ldr	r3, [r4, #0]
   12072:	b103      	cbz	r3, 12076 <_close_r+0x1a>
   12074:	602b      	str	r3, [r5, #0]
   12076:	bd38      	pop	{r3, r4, r5, pc}
   12078:	2003025c 	.word	0x2003025c

0001207c <std>:
   1207c:	2300      	movs	r3, #0
   1207e:	b510      	push	{r4, lr}
   12080:	4604      	mov	r4, r0
   12082:	6083      	str	r3, [r0, #8]
   12084:	8181      	strh	r1, [r0, #12]
   12086:	4619      	mov	r1, r3
   12088:	6643      	str	r3, [r0, #100]	; 0x64
   1208a:	81c2      	strh	r2, [r0, #14]
   1208c:	2208      	movs	r2, #8
   1208e:	6183      	str	r3, [r0, #24]
   12090:	e9c0 3300 	strd	r3, r3, [r0]
   12094:	e9c0 3304 	strd	r3, r3, [r0, #16]
   12098:	305c      	adds	r0, #92	; 0x5c
   1209a:	f000 fecb 	bl	12e34 <memset>
   1209e:	4b05      	ldr	r3, [pc, #20]	; (120b4 <std+0x38>)
   120a0:	6224      	str	r4, [r4, #32]
   120a2:	6263      	str	r3, [r4, #36]	; 0x24
   120a4:	4b04      	ldr	r3, [pc, #16]	; (120b8 <std+0x3c>)
   120a6:	62a3      	str	r3, [r4, #40]	; 0x28
   120a8:	4b04      	ldr	r3, [pc, #16]	; (120bc <std+0x40>)
   120aa:	62e3      	str	r3, [r4, #44]	; 0x2c
   120ac:	4b04      	ldr	r3, [pc, #16]	; (120c0 <std+0x44>)
   120ae:	6323      	str	r3, [r4, #48]	; 0x30
   120b0:	bd10      	pop	{r4, pc}
   120b2:	bf00      	nop
   120b4:	00013071 	.word	0x00013071
   120b8:	00013093 	.word	0x00013093
   120bc:	000130cb 	.word	0x000130cb
   120c0:	000130ef 	.word	0x000130ef

000120c4 <_cleanup_r>:
   120c4:	4901      	ldr	r1, [pc, #4]	; (120cc <_cleanup_r+0x8>)
   120c6:	f001 b8c2 	b.w	1324e <_fwalk_reent>
   120ca:	bf00      	nop
   120cc:	000127d9 	.word	0x000127d9

000120d0 <__sfp_lock_acquire>:
   120d0:	4801      	ldr	r0, [pc, #4]	; (120d8 <__sfp_lock_acquire+0x8>)
   120d2:	f001 b8db 	b.w	1328c <__retarget_lock_acquire_recursive>
   120d6:	bf00      	nop
   120d8:	20030268 	.word	0x20030268

000120dc <__sfp_lock_release>:
   120dc:	4801      	ldr	r0, [pc, #4]	; (120e4 <__sfp_lock_release+0x8>)
   120de:	f001 b8d6 	b.w	1328e <__retarget_lock_release_recursive>
   120e2:	bf00      	nop
   120e4:	20030268 	.word	0x20030268

000120e8 <__sinit_lock_acquire>:
   120e8:	4801      	ldr	r0, [pc, #4]	; (120f0 <__sinit_lock_acquire+0x8>)
   120ea:	f001 b8cf 	b.w	1328c <__retarget_lock_acquire_recursive>
   120ee:	bf00      	nop
   120f0:	20030263 	.word	0x20030263

000120f4 <__sinit_lock_release>:
   120f4:	4801      	ldr	r0, [pc, #4]	; (120fc <__sinit_lock_release+0x8>)
   120f6:	f001 b8ca 	b.w	1328e <__retarget_lock_release_recursive>
   120fa:	bf00      	nop
   120fc:	20030263 	.word	0x20030263

00012100 <__sinit>:
   12100:	b510      	push	{r4, lr}
   12102:	4604      	mov	r4, r0
   12104:	f7ff fff0 	bl	120e8 <__sinit_lock_acquire>
   12108:	69a3      	ldr	r3, [r4, #24]
   1210a:	b11b      	cbz	r3, 12114 <__sinit+0x14>
   1210c:	e8bd 4010 	ldmia.w	sp!, {r4, lr}
   12110:	f7ff bff0 	b.w	120f4 <__sinit_lock_release>
   12114:	e9c4 3312 	strd	r3, r3, [r4, #72]	; 0x48
   12118:	6523      	str	r3, [r4, #80]	; 0x50
   1211a:	4620      	mov	r0, r4
   1211c:	4b12      	ldr	r3, [pc, #72]	; (12168 <__sinit+0x68>)
   1211e:	4a13      	ldr	r2, [pc, #76]	; (1216c <__sinit+0x6c>)
   12120:	681b      	ldr	r3, [r3, #0]
   12122:	62a2      	str	r2, [r4, #40]	; 0x28
   12124:	42a3      	cmp	r3, r4
   12126:	bf04      	itt	eq
   12128:	2301      	moveq	r3, #1
   1212a:	61a3      	streq	r3, [r4, #24]
   1212c:	f000 f820 	bl	12170 <__sfp>
   12130:	6060      	str	r0, [r4, #4]
   12132:	4620      	mov	r0, r4
   12134:	f000 f81c 	bl	12170 <__sfp>
   12138:	60a0      	str	r0, [r4, #8]
   1213a:	4620      	mov	r0, r4
   1213c:	f000 f818 	bl	12170 <__sfp>
   12140:	2200      	movs	r2, #0
   12142:	60e0      	str	r0, [r4, #12]
   12144:	2104      	movs	r1, #4
   12146:	6860      	ldr	r0, [r4, #4]
   12148:	f7ff ff98 	bl	1207c <std>
   1214c:	2201      	movs	r2, #1
   1214e:	2109      	movs	r1, #9
   12150:	68a0      	ldr	r0, [r4, #8]
   12152:	f7ff ff93 	bl	1207c <std>
   12156:	2202      	movs	r2, #2
   12158:	2112      	movs	r1, #18
   1215a:	68e0      	ldr	r0, [r4, #12]
   1215c:	f7ff ff8e 	bl	1207c <std>
   12160:	2301      	movs	r3, #1
   12162:	61a3      	str	r3, [r4, #24]
   12164:	e7d2      	b.n	1210c <__sinit+0xc>
   12166:	bf00      	nop
   12168:	000140c8 	.word	0x000140c8
   1216c:	000120c5 	.word	0x000120c5

00012170 <__sfp>:
   12170:	b5f8      	push	{r3, r4, r5, r6, r7, lr}
   12172:	4607      	mov	r7, r0
   12174:	f7ff ffac 	bl	120d0 <__sfp_lock_acquire>
   12178:	4b1e      	ldr	r3, [pc, #120]	; (121f4 <__sfp+0x84>)
   1217a:	681e      	ldr	r6, [r3, #0]
   1217c:	69b3      	ldr	r3, [r6, #24]
   1217e:	b913      	cbnz	r3, 12186 <__sfp+0x16>
   12180:	4630      	mov	r0, r6
   12182:	f7ff ffbd 	bl	12100 <__sinit>
   12186:	3648      	adds	r6, #72	; 0x48
   12188:	e9d6 3401 	ldrd	r3, r4, [r6, #4]
   1218c:	3b01      	subs	r3, #1
   1218e:	d503      	bpl.n	12198 <__sfp+0x28>
   12190:	6833      	ldr	r3, [r6, #0]
   12192:	b30b      	cbz	r3, 121d8 <__sfp+0x68>
   12194:	6836      	ldr	r6, [r6, #0]
   12196:	e7f7      	b.n	12188 <__sfp+0x18>
   12198:	f9b4 500c 	ldrsh.w	r5, [r4, #12]
   1219c:	b9d5      	cbnz	r5, 121d4 <__sfp+0x64>
   1219e:	4b16      	ldr	r3, [pc, #88]	; (121f8 <__sfp+0x88>)
   121a0:	f104 0058 	add.w	r0, r4, #88	; 0x58
   121a4:	6665      	str	r5, [r4, #100]	; 0x64
   121a6:	60e3      	str	r3, [r4, #12]
   121a8:	f001 f86f 	bl	1328a <__retarget_lock_init_recursive>
   121ac:	f7ff ff96 	bl	120dc <__sfp_lock_release>
   121b0:	6025      	str	r5, [r4, #0]
   121b2:	61a5      	str	r5, [r4, #24]
   121b4:	2208      	movs	r2, #8
   121b6:	4629      	mov	r1, r5
   121b8:	f104 005c 	add.w	r0, r4, #92	; 0x5c
   121bc:	e9c4 5501 	strd	r5, r5, [r4, #4]
   121c0:	e9c4 5504 	strd	r5, r5, [r4, #16]
   121c4:	f000 fe36 	bl	12e34 <memset>
   121c8:	e9c4 550d 	strd	r5, r5, [r4, #52]	; 0x34
   121cc:	e9c4 5512 	strd	r5, r5, [r4, #72]	; 0x48
   121d0:	4620      	mov	r0, r4
   121d2:	bdf8      	pop	{r3, r4, r5, r6, r7, pc}
   121d4:	3468      	adds	r4, #104	; 0x68
   121d6:	e7d9      	b.n	1218c <__sfp+0x1c>
   121d8:	2104      	movs	r1, #4
   121da:	4638      	mov	r0, r7
   121dc:	f001 f821 	bl	13222 <__sfmoreglue>
   121e0:	4604      	mov	r4, r0
   121e2:	6030      	str	r0, [r6, #0]
   121e4:	2800      	cmp	r0, #0
   121e6:	d1d5      	bne.n	12194 <__sfp+0x24>
   121e8:	f7ff ff78 	bl	120dc <__sfp_lock_release>
   121ec:	230c      	movs	r3, #12
   121ee:	603b      	str	r3, [r7, #0]
   121f0:	e7ee      	b.n	121d0 <__sfp+0x60>
   121f2:	bf00      	nop
   121f4:	000140c8 	.word	0x000140c8
   121f8:	ffff0001 	.word	0xffff0001

000121fc <_localeconv_r>:
   121fc:	4800      	ldr	r0, [pc, #0]	; (12200 <_localeconv_r+0x4>)
   121fe:	4770      	bx	lr
   12200:	20030154 	.word	0x20030154

00012204 <_lseek_r>:
   12204:	b538      	push	{r3, r4, r5, lr}
   12206:	4605      	mov	r5, r0
   12208:	4c06      	ldr	r4, [pc, #24]	; (12224 <_lseek_r+0x20>)
   1220a:	4608      	mov	r0, r1
   1220c:	4611      	mov	r1, r2
   1220e:	2200      	movs	r2, #0
   12210:	6022      	str	r2, [r4, #0]
   12212:	461a      	mov	r2, r3
   12214:	f001 fbba 	bl	1398c <_lseek>
   12218:	1c43      	adds	r3, r0, #1
   1221a:	d102      	bne.n	12222 <_lseek_r+0x1e>
   1221c:	6823      	ldr	r3, [r4, #0]
   1221e:	b103      	cbz	r3, 12222 <_lseek_r+0x1e>
   12220:	602b      	str	r3, [r5, #0]
   12222:	bd38      	pop	{r3, r4, r5, pc}
   12224:	2003025c 	.word	0x2003025c

00012228 <__malloc_lock>:
   12228:	4801      	ldr	r0, [pc, #4]	; (12230 <__malloc_lock+0x8>)
   1222a:	f001 b82f 	b.w	1328c <__retarget_lock_acquire_recursive>
   1222e:	bf00      	nop
   12230:	20030264 	.word	0x20030264

00012234 <__malloc_unlock>:
   12234:	4801      	ldr	r0, [pc, #4]	; (1223c <__malloc_unlock+0x8>)
   12236:	f001 b82a 	b.w	1328e <__retarget_lock_release_recursive>
   1223a:	bf00      	nop
   1223c:	20030264 	.word	0x20030264

00012240 <__pow5mult>:
   12240:	e92d 43f8 	stmdb	sp!, {r3, r4, r5, r6, r7, r8, r9, lr}
   12244:	4615      	mov	r5, r2
   12246:	f012 0203 	ands.w	r2, r2, #3
   1224a:	4606      	mov	r6, r0
   1224c:	460f      	mov	r7, r1
   1224e:	d007      	beq.n	12260 <__pow5mult+0x20>
   12250:	3a01      	subs	r2, #1
   12252:	4c21      	ldr	r4, [pc, #132]	; (122d8 <__pow5mult+0x98>)
   12254:	2300      	movs	r3, #0
   12256:	f854 2022 	ldr.w	r2, [r4, r2, lsl #2]
   1225a:	f001 f872 	bl	13342 <__multadd>
   1225e:	4607      	mov	r7, r0
   12260:	10ad      	asrs	r5, r5, #2
   12262:	d035      	beq.n	122d0 <__pow5mult+0x90>
   12264:	6a74      	ldr	r4, [r6, #36]	; 0x24
   12266:	b93c      	cbnz	r4, 12278 <__pow5mult+0x38>
   12268:	2010      	movs	r0, #16
   1226a:	f7ff facb 	bl	11804 <malloc>
   1226e:	6270      	str	r0, [r6, #36]	; 0x24
   12270:	6004      	str	r4, [r0, #0]
   12272:	60c4      	str	r4, [r0, #12]
   12274:	e9c0 4401 	strd	r4, r4, [r0, #4]
   12278:	f8d6 8024 	ldr.w	r8, [r6, #36]	; 0x24
   1227c:	f8d8 4008 	ldr.w	r4, [r8, #8]
   12280:	b94c      	cbnz	r4, 12296 <__pow5mult+0x56>
   12282:	f240 2171 	movw	r1, #625	; 0x271
   12286:	4630      	mov	r0, r6
   12288:	f001 f8e8 	bl	1345c <__i2b>
   1228c:	2300      	movs	r3, #0
   1228e:	4604      	mov	r4, r0
   12290:	f8c8 0008 	str.w	r0, [r8, #8]
   12294:	6003      	str	r3, [r0, #0]
   12296:	f04f 0800 	mov.w	r8, #0
   1229a:	07eb      	lsls	r3, r5, #31
   1229c:	d50a      	bpl.n	122b4 <__pow5mult+0x74>
   1229e:	4639      	mov	r1, r7
   122a0:	4622      	mov	r2, r4
   122a2:	4630      	mov	r0, r6
   122a4:	f001 f8e3 	bl	1346e <__multiply>
   122a8:	4681      	mov	r9, r0
   122aa:	4639      	mov	r1, r7
   122ac:	4630      	mov	r0, r6
   122ae:	464f      	mov	r7, r9
   122b0:	f001 f830 	bl	13314 <_Bfree>
   122b4:	106d      	asrs	r5, r5, #1
   122b6:	d00b      	beq.n	122d0 <__pow5mult+0x90>
   122b8:	6820      	ldr	r0, [r4, #0]
   122ba:	b938      	cbnz	r0, 122cc <__pow5mult+0x8c>
   122bc:	4622      	mov	r2, r4
   122be:	4621      	mov	r1, r4
   122c0:	4630      	mov	r0, r6
   122c2:	f001 f8d4 	bl	1346e <__multiply>
   122c6:	6020      	str	r0, [r4, #0]
   122c8:	f8c0 8000 	str.w	r8, [r0]
   122cc:	4604      	mov	r4, r0
   122ce:	e7e4      	b.n	1229a <__pow5mult+0x5a>
   122d0:	4638      	mov	r0, r7
   122d2:	e8bd 83f8 	ldmia.w	sp!, {r3, r4, r5, r6, r7, r8, r9, pc}
   122d6:	bf00      	nop
   122d8:	0001412c 	.word	0x0001412c

000122dc <_vfiprintf_r>:
   122dc:	e92d 4ff0 	stmdb	sp!, {r4, r5, r6, r7, r8, r9, sl, fp, lr}
   122e0:	460d      	mov	r5, r1
   122e2:	b09d      	sub	sp, #116	; 0x74
   122e4:	4614      	mov	r4, r2
   122e6:	461e      	mov	r6, r3
   122e8:	4607      	mov	r7, r0
   122ea:	b118      	cbz	r0, 122f4 <_vfiprintf_r+0x18>
   122ec:	6983      	ldr	r3, [r0, #24]
   122ee:	b90b      	cbnz	r3, 122f4 <_vfiprintf_r+0x18>
   122f0:	f7ff ff06 	bl	12100 <__sinit>
   122f4:	4b85      	ldr	r3, [pc, #532]	; (1250c <_vfiprintf_r+0x230>)
   122f6:	429d      	cmp	r5, r3
   122f8:	d11b      	bne.n	12332 <_vfiprintf_r+0x56>
   122fa:	687d      	ldr	r5, [r7, #4]
   122fc:	6e6b      	ldr	r3, [r5, #100]	; 0x64
   122fe:	07d9      	lsls	r1, r3, #31
   12300:	d405      	bmi.n	1230e <_vfiprintf_r+0x32>
   12302:	89ab      	ldrh	r3, [r5, #12]
   12304:	059a      	lsls	r2, r3, #22
   12306:	d402      	bmi.n	1230e <_vfiprintf_r+0x32>
   12308:	6da8      	ldr	r0, [r5, #88]	; 0x58
   1230a:	f000 ffbf 	bl	1328c <__retarget_lock_acquire_recursive>
   1230e:	89ab      	ldrh	r3, [r5, #12]
   12310:	071b      	lsls	r3, r3, #28
   12312:	d501      	bpl.n	12318 <_vfiprintf_r+0x3c>
   12314:	692b      	ldr	r3, [r5, #16]
   12316:	b9eb      	cbnz	r3, 12354 <_vfiprintf_r+0x78>
   12318:	4629      	mov	r1, r5
   1231a:	4638      	mov	r0, r7
   1231c:	f000 f96a 	bl	125f4 <__swsetup_r>
   12320:	b1c0      	cbz	r0, 12354 <_vfiprintf_r+0x78>
   12322:	6e6b      	ldr	r3, [r5, #100]	; 0x64
   12324:	07d8      	lsls	r0, r3, #31
   12326:	d50e      	bpl.n	12346 <_vfiprintf_r+0x6a>
   12328:	f04f 30ff 	mov.w	r0, #4294967295
   1232c:	b01d      	add	sp, #116	; 0x74
   1232e:	e8bd 8ff0 	ldmia.w	sp!, {r4, r5, r6, r7, r8, r9, sl, fp, pc}
   12332:	4b77      	ldr	r3, [pc, #476]	; (12510 <_vfiprintf_r+0x234>)
   12334:	429d      	cmp	r5, r3
   12336:	d101      	bne.n	1233c <_vfiprintf_r+0x60>
   12338:	68bd      	ldr	r5, [r7, #8]
   1233a:	e7df      	b.n	122fc <_vfiprintf_r+0x20>
   1233c:	4b75      	ldr	r3, [pc, #468]	; (12514 <_vfiprintf_r+0x238>)
   1233e:	429d      	cmp	r5, r3
   12340:	bf08      	it	eq
   12342:	68fd      	ldreq	r5, [r7, #12]
   12344:	e7da      	b.n	122fc <_vfiprintf_r+0x20>
   12346:	89ab      	ldrh	r3, [r5, #12]
   12348:	0599      	lsls	r1, r3, #22
   1234a:	d4ed      	bmi.n	12328 <_vfiprintf_r+0x4c>
   1234c:	6da8      	ldr	r0, [r5, #88]	; 0x58
   1234e:	f000 ff9e 	bl	1328e <__retarget_lock_release_recursive>
   12352:	e7e9      	b.n	12328 <_vfiprintf_r+0x4c>
   12354:	2300      	movs	r3, #0
   12356:	f8df 91c0 	ldr.w	r9, [pc, #448]	; 12518 <_vfiprintf_r+0x23c>
   1235a:	f04f 0a01 	mov.w	sl, #1
   1235e:	9603      	str	r6, [sp, #12]
   12360:	9309      	str	r3, [sp, #36]	; 0x24
   12362:	2320      	movs	r3, #32
   12364:	f88d 3029 	strb.w	r3, [sp, #41]	; 0x29
   12368:	2330      	movs	r3, #48	; 0x30
   1236a:	f88d 302a 	strb.w	r3, [sp, #42]	; 0x2a
   1236e:	4623      	mov	r3, r4
   12370:	461e      	mov	r6, r3
   12372:	f813 2b01 	ldrb.w	r2, [r3], #1
   12376:	b10a      	cbz	r2, 1237c <_vfiprintf_r+0xa0>
   12378:	2a25      	cmp	r2, #37	; 0x25
   1237a:	d1f9      	bne.n	12370 <_vfiprintf_r+0x94>
   1237c:	ebb6 0b04 	subs.w	fp, r6, r4
   12380:	d00b      	beq.n	1239a <_vfiprintf_r+0xbe>
   12382:	465b      	mov	r3, fp
   12384:	4622      	mov	r2, r4
   12386:	4629      	mov	r1, r5
   12388:	4638      	mov	r0, r7
   1238a:	f001 fa31 	bl	137f0 <__sfputs_r>
   1238e:	3001      	adds	r0, #1
   12390:	f000 80a3 	beq.w	124da <_vfiprintf_r+0x1fe>
   12394:	9b09      	ldr	r3, [sp, #36]	; 0x24
   12396:	445b      	add	r3, fp
   12398:	9309      	str	r3, [sp, #36]	; 0x24
   1239a:	7833      	ldrb	r3, [r6, #0]
   1239c:	2b00      	cmp	r3, #0
   1239e:	f000 809c 	beq.w	124da <_vfiprintf_r+0x1fe>
   123a2:	2300      	movs	r3, #0
   123a4:	f04f 32ff 	mov.w	r2, #4294967295
   123a8:	3601      	adds	r6, #1
   123aa:	9304      	str	r3, [sp, #16]
   123ac:	9307      	str	r3, [sp, #28]
   123ae:	f88d 3053 	strb.w	r3, [sp, #83]	; 0x53
   123b2:	931a      	str	r3, [sp, #104]	; 0x68
   123b4:	e9cd 2305 	strd	r2, r3, [sp, #20]
   123b8:	4634      	mov	r4, r6
   123ba:	2205      	movs	r2, #5
   123bc:	4856      	ldr	r0, [pc, #344]	; (12518 <_vfiprintf_r+0x23c>)
   123be:	f814 1b01 	ldrb.w	r1, [r4], #1
   123c2:	f000 ff65 	bl	13290 <memchr>
   123c6:	9b04      	ldr	r3, [sp, #16]
   123c8:	b9c0      	cbnz	r0, 123fc <_vfiprintf_r+0x120>
   123ca:	06da      	lsls	r2, r3, #27
   123cc:	bf44      	itt	mi
   123ce:	2220      	movmi	r2, #32
   123d0:	f88d 2053 	strbmi.w	r2, [sp, #83]	; 0x53
   123d4:	0718      	lsls	r0, r3, #28
   123d6:	bf44      	itt	mi
   123d8:	222b      	movmi	r2, #43	; 0x2b
   123da:	f88d 2053 	strbmi.w	r2, [sp, #83]	; 0x53
   123de:	7832      	ldrb	r2, [r6, #0]
   123e0:	2a2a      	cmp	r2, #42	; 0x2a
   123e2:	d013      	beq.n	1240c <_vfiprintf_r+0x130>
   123e4:	4634      	mov	r4, r6
   123e6:	9a07      	ldr	r2, [sp, #28]
   123e8:	2000      	movs	r0, #0
   123ea:	260a      	movs	r6, #10
   123ec:	4621      	mov	r1, r4
   123ee:	f811 3b01 	ldrb.w	r3, [r1], #1
   123f2:	3b30      	subs	r3, #48	; 0x30
   123f4:	2b09      	cmp	r3, #9
   123f6:	d94b      	bls.n	12490 <_vfiprintf_r+0x1b4>
   123f8:	b970      	cbnz	r0, 12418 <_vfiprintf_r+0x13c>
   123fa:	e014      	b.n	12426 <_vfiprintf_r+0x14a>
   123fc:	eba0 0009 	sub.w	r0, r0, r9
   12400:	4626      	mov	r6, r4
   12402:	fa0a f000 	lsl.w	r0, sl, r0
   12406:	4318      	orrs	r0, r3
   12408:	9004      	str	r0, [sp, #16]
   1240a:	e7d5      	b.n	123b8 <_vfiprintf_r+0xdc>
   1240c:	9a03      	ldr	r2, [sp, #12]
   1240e:	1d11      	adds	r1, r2, #4
   12410:	6812      	ldr	r2, [r2, #0]
   12412:	2a00      	cmp	r2, #0
   12414:	9103      	str	r1, [sp, #12]
   12416:	db01      	blt.n	1241c <_vfiprintf_r+0x140>
   12418:	9207      	str	r2, [sp, #28]
   1241a:	e004      	b.n	12426 <_vfiprintf_r+0x14a>
   1241c:	4252      	negs	r2, r2
   1241e:	f043 0302 	orr.w	r3, r3, #2
   12422:	9207      	str	r2, [sp, #28]
   12424:	9304      	str	r3, [sp, #16]
   12426:	7823      	ldrb	r3, [r4, #0]
   12428:	2b2e      	cmp	r3, #46	; 0x2e
   1242a:	d10c      	bne.n	12446 <_vfiprintf_r+0x16a>
   1242c:	7863      	ldrb	r3, [r4, #1]
   1242e:	2b2a      	cmp	r3, #42	; 0x2a
   12430:	d133      	bne.n	1249a <_vfiprintf_r+0x1be>
   12432:	9b03      	ldr	r3, [sp, #12]
   12434:	3402      	adds	r4, #2
   12436:	1d1a      	adds	r2, r3, #4
   12438:	681b      	ldr	r3, [r3, #0]
   1243a:	2b00      	cmp	r3, #0
   1243c:	9203      	str	r2, [sp, #12]
   1243e:	bfb8      	it	lt
   12440:	f04f 33ff 	movlt.w	r3, #4294967295
   12444:	9305      	str	r3, [sp, #20]
   12446:	4e35      	ldr	r6, [pc, #212]	; (1251c <_vfiprintf_r+0x240>)
   12448:	2203      	movs	r2, #3
   1244a:	7821      	ldrb	r1, [r4, #0]
   1244c:	4630      	mov	r0, r6
   1244e:	f000 ff1f 	bl	13290 <memchr>
   12452:	b138      	cbz	r0, 12464 <_vfiprintf_r+0x188>
   12454:	2340      	movs	r3, #64	; 0x40
   12456:	1b80      	subs	r0, r0, r6
   12458:	3401      	adds	r4, #1
   1245a:	fa03 f000 	lsl.w	r0, r3, r0
   1245e:	9b04      	ldr	r3, [sp, #16]
   12460:	4303      	orrs	r3, r0
   12462:	9304      	str	r3, [sp, #16]
   12464:	f814 1b01 	ldrb.w	r1, [r4], #1
   12468:	2206      	movs	r2, #6
   1246a:	482d      	ldr	r0, [pc, #180]	; (12520 <_vfiprintf_r+0x244>)
   1246c:	f88d 1028 	strb.w	r1, [sp, #40]	; 0x28
   12470:	f000 ff0e 	bl	13290 <memchr>
   12474:	2800      	cmp	r0, #0
   12476:	d03f      	beq.n	124f8 <_vfiprintf_r+0x21c>
   12478:	4b2a      	ldr	r3, [pc, #168]	; (12524 <_vfiprintf_r+0x248>)
   1247a:	bb13      	cbnz	r3, 124c2 <_vfiprintf_r+0x1e6>
   1247c:	9b03      	ldr	r3, [sp, #12]
   1247e:	3307      	adds	r3, #7
   12480:	f023 0307 	bic.w	r3, r3, #7
   12484:	3308      	adds	r3, #8
   12486:	9303      	str	r3, [sp, #12]
   12488:	9b09      	ldr	r3, [sp, #36]	; 0x24
   1248a:	4443      	add	r3, r8
   1248c:	9309      	str	r3, [sp, #36]	; 0x24
   1248e:	e76e      	b.n	1236e <_vfiprintf_r+0x92>
   12490:	fb06 3202 	mla	r2, r6, r2, r3
   12494:	2001      	movs	r0, #1
   12496:	460c      	mov	r4, r1
   12498:	e7a8      	b.n	123ec <_vfiprintf_r+0x110>
   1249a:	2300      	movs	r3, #0
   1249c:	3401      	adds	r4, #1
   1249e:	260a      	movs	r6, #10
   124a0:	4619      	mov	r1, r3
   124a2:	9305      	str	r3, [sp, #20]
   124a4:	4620      	mov	r0, r4
   124a6:	f810 2b01 	ldrb.w	r2, [r0], #1
   124aa:	3a30      	subs	r2, #48	; 0x30
   124ac:	2a09      	cmp	r2, #9
   124ae:	d903      	bls.n	124b8 <_vfiprintf_r+0x1dc>
   124b0:	2b00      	cmp	r3, #0
   124b2:	d0c8      	beq.n	12446 <_vfiprintf_r+0x16a>
   124b4:	9105      	str	r1, [sp, #20]
   124b6:	e7c6      	b.n	12446 <_vfiprintf_r+0x16a>
   124b8:	fb06 2101 	mla	r1, r6, r1, r2
   124bc:	2301      	movs	r3, #1
   124be:	4604      	mov	r4, r0
   124c0:	e7f0      	b.n	124a4 <_vfiprintf_r+0x1c8>
   124c2:	ab03      	add	r3, sp, #12
   124c4:	462a      	mov	r2, r5
   124c6:	a904      	add	r1, sp, #16
   124c8:	4638      	mov	r0, r7
   124ca:	9300      	str	r3, [sp, #0]
   124cc:	4b16      	ldr	r3, [pc, #88]	; (12528 <_vfiprintf_r+0x24c>)
   124ce:	f7ff fa49 	bl	11964 <_printf_float>
   124d2:	f1b0 3fff 	cmp.w	r0, #4294967295
   124d6:	4680      	mov	r8, r0
   124d8:	d1d6      	bne.n	12488 <_vfiprintf_r+0x1ac>
   124da:	6e6b      	ldr	r3, [r5, #100]	; 0x64
   124dc:	07d9      	lsls	r1, r3, #31
   124de:	d405      	bmi.n	124ec <_vfiprintf_r+0x210>
   124e0:	89ab      	ldrh	r3, [r5, #12]
   124e2:	059a      	lsls	r2, r3, #22
   124e4:	d402      	bmi.n	124ec <_vfiprintf_r+0x210>
   124e6:	6da8      	ldr	r0, [r5, #88]	; 0x58
   124e8:	f000 fed1 	bl	1328e <__retarget_lock_release_recursive>
   124ec:	89ab      	ldrh	r3, [r5, #12]
   124ee:	065b      	lsls	r3, r3, #25
   124f0:	f53f af1a 	bmi.w	12328 <_vfiprintf_r+0x4c>
   124f4:	9809      	ldr	r0, [sp, #36]	; 0x24
   124f6:	e719      	b.n	1232c <_vfiprintf_r+0x50>
   124f8:	ab03      	add	r3, sp, #12
   124fa:	462a      	mov	r2, r5
   124fc:	a904      	add	r1, sp, #16
   124fe:	4638      	mov	r0, r7
   12500:	9300      	str	r3, [sp, #0]
   12502:	4b09      	ldr	r3, [pc, #36]	; (12528 <_vfiprintf_r+0x24c>)
   12504:	f7ff fc5c 	bl	11dc0 <_printf_i>
   12508:	e7e3      	b.n	124d2 <_vfiprintf_r+0x1f6>
   1250a:	bf00      	nop
   1250c:	000140ec 	.word	0x000140ec
   12510:	0001410c 	.word	0x0001410c
   12514:	000140cc 	.word	0x000140cc
   12518:	00014179 	.word	0x00014179
   1251c:	0001417f 	.word	0x0001417f
   12520:	00014183 	.word	0x00014183
   12524:	00011965 	.word	0x00011965
   12528:	000137f1 	.word	0x000137f1

0001252c <_read_r>:
   1252c:	b538      	push	{r3, r4, r5, lr}
   1252e:	4605      	mov	r5, r0
   12530:	4c06      	ldr	r4, [pc, #24]	; (1254c <_read_r+0x20>)
   12532:	4608      	mov	r0, r1
   12534:	4611      	mov	r1, r2
   12536:	2200      	movs	r2, #0
   12538:	6022      	str	r2, [r4, #0]
   1253a:	461a      	mov	r2, r3
   1253c:	f001 f9d0 	bl	138e0 <_read>
   12540:	1c43      	adds	r3, r0, #1
   12542:	d102      	bne.n	1254a <_read_r+0x1e>
   12544:	6823      	ldr	r3, [r4, #0]
   12546:	b103      	cbz	r3, 1254a <_read_r+0x1e>
   12548:	602b      	str	r3, [r5, #0]
   1254a:	bd38      	pop	{r3, r4, r5, pc}
   1254c:	2003025c 	.word	0x2003025c

00012550 <__swbuf_r>:
   12550:	b5f8      	push	{r3, r4, r5, r6, r7, lr}
   12552:	460e      	mov	r6, r1
   12554:	4614      	mov	r4, r2
   12556:	4605      	mov	r5, r0
   12558:	b118      	cbz	r0, 12562 <__swbuf_r+0x12>
   1255a:	6983      	ldr	r3, [r0, #24]
   1255c:	b90b      	cbnz	r3, 12562 <__swbuf_r+0x12>
   1255e:	f7ff fdcf 	bl	12100 <__sinit>
   12562:	4b21      	ldr	r3, [pc, #132]	; (125e8 <__swbuf_r+0x98>)
   12564:	429c      	cmp	r4, r3
   12566:	d12b      	bne.n	125c0 <__swbuf_r+0x70>
   12568:	686c      	ldr	r4, [r5, #4]
   1256a:	69a3      	ldr	r3, [r4, #24]
   1256c:	60a3      	str	r3, [r4, #8]
   1256e:	89a3      	ldrh	r3, [r4, #12]
   12570:	071a      	lsls	r2, r3, #28
   12572:	d52f      	bpl.n	125d4 <__swbuf_r+0x84>
   12574:	6923      	ldr	r3, [r4, #16]
   12576:	b36b      	cbz	r3, 125d4 <__swbuf_r+0x84>
   12578:	6923      	ldr	r3, [r4, #16]
   1257a:	b2f6      	uxtb	r6, r6
   1257c:	6820      	ldr	r0, [r4, #0]
   1257e:	4637      	mov	r7, r6
   12580:	1ac0      	subs	r0, r0, r3
   12582:	6963      	ldr	r3, [r4, #20]
   12584:	4283      	cmp	r3, r0
   12586:	dc04      	bgt.n	12592 <__swbuf_r+0x42>
   12588:	4621      	mov	r1, r4
   1258a:	4628      	mov	r0, r5
   1258c:	f000 f924 	bl	127d8 <_fflush_r>
   12590:	bb30      	cbnz	r0, 125e0 <__swbuf_r+0x90>
   12592:	68a3      	ldr	r3, [r4, #8]
   12594:	3001      	adds	r0, #1
   12596:	3b01      	subs	r3, #1
   12598:	60a3      	str	r3, [r4, #8]
   1259a:	6823      	ldr	r3, [r4, #0]
   1259c:	1c5a      	adds	r2, r3, #1
   1259e:	6022      	str	r2, [r4, #0]
   125a0:	701e      	strb	r6, [r3, #0]
   125a2:	6963      	ldr	r3, [r4, #20]
   125a4:	4283      	cmp	r3, r0
   125a6:	d004      	beq.n	125b2 <__swbuf_r+0x62>
   125a8:	89a3      	ldrh	r3, [r4, #12]
   125aa:	07db      	lsls	r3, r3, #31
   125ac:	d506      	bpl.n	125bc <__swbuf_r+0x6c>
   125ae:	2e0a      	cmp	r6, #10
   125b0:	d104      	bne.n	125bc <__swbuf_r+0x6c>
   125b2:	4621      	mov	r1, r4
   125b4:	4628      	mov	r0, r5
   125b6:	f000 f90f 	bl	127d8 <_fflush_r>
   125ba:	b988      	cbnz	r0, 125e0 <__swbuf_r+0x90>
   125bc:	4638      	mov	r0, r7
   125be:	bdf8      	pop	{r3, r4, r5, r6, r7, pc}
   125c0:	4b0a      	ldr	r3, [pc, #40]	; (125ec <__swbuf_r+0x9c>)
   125c2:	429c      	cmp	r4, r3
   125c4:	d101      	bne.n	125ca <__swbuf_r+0x7a>
   125c6:	68ac      	ldr	r4, [r5, #8]
   125c8:	e7cf      	b.n	1256a <__swbuf_r+0x1a>
   125ca:	4b09      	ldr	r3, [pc, #36]	; (125f0 <__swbuf_r+0xa0>)
   125cc:	429c      	cmp	r4, r3
   125ce:	bf08      	it	eq
   125d0:	68ec      	ldreq	r4, [r5, #12]
   125d2:	e7ca      	b.n	1256a <__swbuf_r+0x1a>
   125d4:	4621      	mov	r1, r4
   125d6:	4628      	mov	r0, r5
   125d8:	f000 f80c 	bl	125f4 <__swsetup_r>
   125dc:	2800      	cmp	r0, #0
   125de:	d0cb      	beq.n	12578 <__swbuf_r+0x28>
   125e0:	f04f 37ff 	mov.w	r7, #4294967295
   125e4:	e7ea      	b.n	125bc <__swbuf_r+0x6c>
   125e6:	bf00      	nop
   125e8:	000140ec 	.word	0x000140ec
   125ec:	0001410c 	.word	0x0001410c
   125f0:	000140cc 	.word	0x000140cc

000125f4 <__swsetup_r>:
   125f4:	4b32      	ldr	r3, [pc, #200]	; (126c0 <__swsetup_r+0xcc>)
   125f6:	b570      	push	{r4, r5, r6, lr}
   125f8:	681d      	ldr	r5, [r3, #0]
   125fa:	4606      	mov	r6, r0
   125fc:	460c      	mov	r4, r1
   125fe:	b125      	cbz	r5, 1260a <__swsetup_r+0x16>
   12600:	69ab      	ldr	r3, [r5, #24]
   12602:	b913      	cbnz	r3, 1260a <__swsetup_r+0x16>
   12604:	4628      	mov	r0, r5
   12606:	f7ff fd7b 	bl	12100 <__sinit>
   1260a:	4b2e      	ldr	r3, [pc, #184]	; (126c4 <__swsetup_r+0xd0>)
   1260c:	429c      	cmp	r4, r3
   1260e:	d10f      	bne.n	12630 <__swsetup_r+0x3c>
   12610:	686c      	ldr	r4, [r5, #4]
   12612:	f9b4 300c 	ldrsh.w	r3, [r4, #12]
   12616:	b29a      	uxth	r2, r3
   12618:	0715      	lsls	r5, r2, #28
   1261a:	d42c      	bmi.n	12676 <__swsetup_r+0x82>
   1261c:	06d0      	lsls	r0, r2, #27
   1261e:	d411      	bmi.n	12644 <__swsetup_r+0x50>
   12620:	2209      	movs	r2, #9
   12622:	6032      	str	r2, [r6, #0]
   12624:	f043 0340 	orr.w	r3, r3, #64	; 0x40
   12628:	f04f 30ff 	mov.w	r0, #4294967295
   1262c:	81a3      	strh	r3, [r4, #12]
   1262e:	e03e      	b.n	126ae <__swsetup_r+0xba>
   12630:	4b25      	ldr	r3, [pc, #148]	; (126c8 <__swsetup_r+0xd4>)
   12632:	429c      	cmp	r4, r3
   12634:	d101      	bne.n	1263a <__swsetup_r+0x46>
   12636:	68ac      	ldr	r4, [r5, #8]
   12638:	e7eb      	b.n	12612 <__swsetup_r+0x1e>
   1263a:	4b24      	ldr	r3, [pc, #144]	; (126cc <__swsetup_r+0xd8>)
   1263c:	429c      	cmp	r4, r3
   1263e:	bf08      	it	eq
   12640:	68ec      	ldreq	r4, [r5, #12]
   12642:	e7e6      	b.n	12612 <__swsetup_r+0x1e>
   12644:	0751      	lsls	r1, r2, #29
   12646:	d512      	bpl.n	1266e <__swsetup_r+0x7a>
   12648:	6b61      	ldr	r1, [r4, #52]	; 0x34
   1264a:	b141      	cbz	r1, 1265e <__swsetup_r+0x6a>
   1264c:	f104 0344 	add.w	r3, r4, #68	; 0x44
   12650:	4299      	cmp	r1, r3
   12652:	d002      	beq.n	1265a <__swsetup_r+0x66>
   12654:	4630      	mov	r0, r6
   12656:	f7ff f8dd 	bl	11814 <_free_r>
   1265a:	2300      	movs	r3, #0
   1265c:	6363      	str	r3, [r4, #52]	; 0x34
   1265e:	89a3      	ldrh	r3, [r4, #12]
   12660:	f023 0324 	bic.w	r3, r3, #36	; 0x24
   12664:	81a3      	strh	r3, [r4, #12]
   12666:	2300      	movs	r3, #0
   12668:	6063      	str	r3, [r4, #4]
   1266a:	6923      	ldr	r3, [r4, #16]
   1266c:	6023      	str	r3, [r4, #0]
   1266e:	89a3      	ldrh	r3, [r4, #12]
   12670:	f043 0308 	orr.w	r3, r3, #8
   12674:	81a3      	strh	r3, [r4, #12]
   12676:	6923      	ldr	r3, [r4, #16]
   12678:	b94b      	cbnz	r3, 1268e <__swsetup_r+0x9a>
   1267a:	89a3      	ldrh	r3, [r4, #12]
   1267c:	f403 7320 	and.w	r3, r3, #640	; 0x280
   12680:	f5b3 7f00 	cmp.w	r3, #512	; 0x200
   12684:	d003      	beq.n	1268e <__swsetup_r+0x9a>
   12686:	4621      	mov	r1, r4
   12688:	4630      	mov	r0, r6
   1268a:	f000 f8e1 	bl	12850 <__smakebuf_r>
   1268e:	89a2      	ldrh	r2, [r4, #12]
   12690:	f012 0301 	ands.w	r3, r2, #1
   12694:	d00c      	beq.n	126b0 <__swsetup_r+0xbc>
   12696:	2300      	movs	r3, #0
   12698:	60a3      	str	r3, [r4, #8]
   1269a:	6963      	ldr	r3, [r4, #20]
   1269c:	425b      	negs	r3, r3
   1269e:	61a3      	str	r3, [r4, #24]
   126a0:	6923      	ldr	r3, [r4, #16]
   126a2:	b953      	cbnz	r3, 126ba <__swsetup_r+0xc6>
   126a4:	f9b4 300c 	ldrsh.w	r3, [r4, #12]
   126a8:	f013 0080 	ands.w	r0, r3, #128	; 0x80
   126ac:	d1ba      	bne.n	12624 <__swsetup_r+0x30>
   126ae:	bd70      	pop	{r4, r5, r6, pc}
   126b0:	0792      	lsls	r2, r2, #30
   126b2:	bf58      	it	pl
   126b4:	6963      	ldrpl	r3, [r4, #20]
   126b6:	60a3      	str	r3, [r4, #8]
   126b8:	e7f2      	b.n	126a0 <__swsetup_r+0xac>
   126ba:	2000      	movs	r0, #0
   126bc:	e7f7      	b.n	126ae <__swsetup_r+0xba>
   126be:	bf00      	nop
   126c0:	20030000 	.word	0x20030000
   126c4:	000140ec 	.word	0x000140ec
   126c8:	0001410c 	.word	0x0001410c
   126cc:	000140cc 	.word	0x000140cc

000126d0 <__sflush_r>:
   126d0:	898a      	ldrh	r2, [r1, #12]
   126d2:	e92d 41f0 	stmdb	sp!, {r4, r5, r6, r7, r8, lr}
   126d6:	4605      	mov	r5, r0
   126d8:	0710      	lsls	r0, r2, #28
   126da:	460c      	mov	r4, r1
   126dc:	d458      	bmi.n	12790 <__sflush_r+0xc0>
   126de:	684b      	ldr	r3, [r1, #4]
   126e0:	2b00      	cmp	r3, #0
   126e2:	dc05      	bgt.n	126f0 <__sflush_r+0x20>
   126e4:	6c0b      	ldr	r3, [r1, #64]	; 0x40
   126e6:	2b00      	cmp	r3, #0
   126e8:	dc02      	bgt.n	126f0 <__sflush_r+0x20>
   126ea:	2000      	movs	r0, #0
   126ec:	e8bd 81f0 	ldmia.w	sp!, {r4, r5, r6, r7, r8, pc}
   126f0:	6ae6      	ldr	r6, [r4, #44]	; 0x2c
   126f2:	2e00      	cmp	r6, #0
   126f4:	d0f9      	beq.n	126ea <__sflush_r+0x1a>
   126f6:	2300      	movs	r3, #0
   126f8:	f412 5280 	ands.w	r2, r2, #4096	; 0x1000
   126fc:	682f      	ldr	r7, [r5, #0]
   126fe:	602b      	str	r3, [r5, #0]
   12700:	d032      	beq.n	12768 <__sflush_r+0x98>
   12702:	6d60      	ldr	r0, [r4, #84]	; 0x54
   12704:	89a3      	ldrh	r3, [r4, #12]
   12706:	075a      	lsls	r2, r3, #29
   12708:	d505      	bpl.n	12716 <__sflush_r+0x46>
   1270a:	6863      	ldr	r3, [r4, #4]
   1270c:	1ac0      	subs	r0, r0, r3
   1270e:	6b63      	ldr	r3, [r4, #52]	; 0x34
   12710:	b10b      	cbz	r3, 12716 <__sflush_r+0x46>
   12712:	6c23      	ldr	r3, [r4, #64]	; 0x40
   12714:	1ac0      	subs	r0, r0, r3
   12716:	2300      	movs	r3, #0
   12718:	4602      	mov	r2, r0
   1271a:	6ae6      	ldr	r6, [r4, #44]	; 0x2c
   1271c:	4628      	mov	r0, r5
   1271e:	6a21      	ldr	r1, [r4, #32]
   12720:	47b0      	blx	r6
   12722:	1c43      	adds	r3, r0, #1
   12724:	89a3      	ldrh	r3, [r4, #12]
   12726:	d106      	bne.n	12736 <__sflush_r+0x66>
   12728:	6829      	ldr	r1, [r5, #0]
   1272a:	291d      	cmp	r1, #29
   1272c:	d848      	bhi.n	127c0 <__sflush_r+0xf0>
   1272e:	4a29      	ldr	r2, [pc, #164]	; (127d4 <__sflush_r+0x104>)
   12730:	40ca      	lsrs	r2, r1
   12732:	07d6      	lsls	r6, r2, #31
   12734:	d544      	bpl.n	127c0 <__sflush_r+0xf0>
   12736:	2200      	movs	r2, #0
   12738:	04d9      	lsls	r1, r3, #19
   1273a:	6062      	str	r2, [r4, #4]
   1273c:	6922      	ldr	r2, [r4, #16]
   1273e:	6022      	str	r2, [r4, #0]
   12740:	d504      	bpl.n	1274c <__sflush_r+0x7c>
   12742:	1c42      	adds	r2, r0, #1
   12744:	d101      	bne.n	1274a <__sflush_r+0x7a>
   12746:	682b      	ldr	r3, [r5, #0]
   12748:	b903      	cbnz	r3, 1274c <__sflush_r+0x7c>
   1274a:	6560      	str	r0, [r4, #84]	; 0x54
   1274c:	6b61      	ldr	r1, [r4, #52]	; 0x34
   1274e:	602f      	str	r7, [r5, #0]
   12750:	2900      	cmp	r1, #0
   12752:	d0ca      	beq.n	126ea <__sflush_r+0x1a>
   12754:	f104 0344 	add.w	r3, r4, #68	; 0x44
   12758:	4299      	cmp	r1, r3
   1275a:	d002      	beq.n	12762 <__sflush_r+0x92>
   1275c:	4628      	mov	r0, r5
   1275e:	f7ff f859 	bl	11814 <_free_r>
   12762:	2000      	movs	r0, #0
   12764:	6360      	str	r0, [r4, #52]	; 0x34
   12766:	e7c1      	b.n	126ec <__sflush_r+0x1c>
   12768:	6a21      	ldr	r1, [r4, #32]
   1276a:	2301      	movs	r3, #1
   1276c:	4628      	mov	r0, r5
   1276e:	47b0      	blx	r6
   12770:	1c41      	adds	r1, r0, #1
   12772:	d1c7      	bne.n	12704 <__sflush_r+0x34>
   12774:	682b      	ldr	r3, [r5, #0]
   12776:	2b00      	cmp	r3, #0
   12778:	d0c4      	beq.n	12704 <__sflush_r+0x34>
   1277a:	2b1d      	cmp	r3, #29
   1277c:	d001      	beq.n	12782 <__sflush_r+0xb2>
   1277e:	2b16      	cmp	r3, #22
   12780:	d101      	bne.n	12786 <__sflush_r+0xb6>
   12782:	602f      	str	r7, [r5, #0]
   12784:	e7b1      	b.n	126ea <__sflush_r+0x1a>
   12786:	89a3      	ldrh	r3, [r4, #12]
   12788:	f043 0340 	orr.w	r3, r3, #64	; 0x40
   1278c:	81a3      	strh	r3, [r4, #12]
   1278e:	e7ad      	b.n	126ec <__sflush_r+0x1c>
   12790:	690f      	ldr	r7, [r1, #16]
   12792:	2f00      	cmp	r7, #0
   12794:	d0a9      	beq.n	126ea <__sflush_r+0x1a>
   12796:	0793      	lsls	r3, r2, #30
   12798:	680e      	ldr	r6, [r1, #0]
   1279a:	600f      	str	r7, [r1, #0]
   1279c:	bf0c      	ite	eq
   1279e:	694b      	ldreq	r3, [r1, #20]
   127a0:	2300      	movne	r3, #0
   127a2:	eba6 0807 	sub.w	r8, r6, r7
   127a6:	608b      	str	r3, [r1, #8]
   127a8:	f1b8 0f00 	cmp.w	r8, #0
   127ac:	dd9d      	ble.n	126ea <__sflush_r+0x1a>
   127ae:	4643      	mov	r3, r8
   127b0:	463a      	mov	r2, r7
   127b2:	6a21      	ldr	r1, [r4, #32]
   127b4:	4628      	mov	r0, r5
   127b6:	6aa6      	ldr	r6, [r4, #40]	; 0x28
   127b8:	47b0      	blx	r6
   127ba:	2800      	cmp	r0, #0
   127bc:	dc06      	bgt.n	127cc <__sflush_r+0xfc>
   127be:	89a3      	ldrh	r3, [r4, #12]
   127c0:	f043 0340 	orr.w	r3, r3, #64	; 0x40
   127c4:	f04f 30ff 	mov.w	r0, #4294967295
   127c8:	81a3      	strh	r3, [r4, #12]
   127ca:	e78f      	b.n	126ec <__sflush_r+0x1c>
   127cc:	4407      	add	r7, r0
   127ce:	eba8 0800 	sub.w	r8, r8, r0
   127d2:	e7e9      	b.n	127a8 <__sflush_r+0xd8>
   127d4:	20400001 	.word	0x20400001

000127d8 <_fflush_r>:
   127d8:	b538      	push	{r3, r4, r5, lr}
   127da:	690b      	ldr	r3, [r1, #16]
   127dc:	4605      	mov	r5, r0
   127de:	460c      	mov	r4, r1
   127e0:	b913      	cbnz	r3, 127e8 <_fflush_r+0x10>
   127e2:	2500      	movs	r5, #0
   127e4:	4628      	mov	r0, r5
   127e6:	bd38      	pop	{r3, r4, r5, pc}
   127e8:	b118      	cbz	r0, 127f2 <_fflush_r+0x1a>
   127ea:	6983      	ldr	r3, [r0, #24]
   127ec:	b90b      	cbnz	r3, 127f2 <_fflush_r+0x1a>
   127ee:	f7ff fc87 	bl	12100 <__sinit>
   127f2:	4b14      	ldr	r3, [pc, #80]	; (12844 <_fflush_r+0x6c>)
   127f4:	429c      	cmp	r4, r3
   127f6:	d11b      	bne.n	12830 <_fflush_r+0x58>
   127f8:	686c      	ldr	r4, [r5, #4]
   127fa:	f9b4 300c 	ldrsh.w	r3, [r4, #12]
   127fe:	2b00      	cmp	r3, #0
   12800:	d0ef      	beq.n	127e2 <_fflush_r+0xa>
   12802:	6e62      	ldr	r2, [r4, #100]	; 0x64
   12804:	07d0      	lsls	r0, r2, #31
   12806:	d404      	bmi.n	12812 <_fflush_r+0x3a>
   12808:	0599      	lsls	r1, r3, #22
   1280a:	d402      	bmi.n	12812 <_fflush_r+0x3a>
   1280c:	6da0      	ldr	r0, [r4, #88]	; 0x58
   1280e:	f000 fd3d 	bl	1328c <__retarget_lock_acquire_recursive>
   12812:	4628      	mov	r0, r5
   12814:	4621      	mov	r1, r4
   12816:	f7ff ff5b 	bl	126d0 <__sflush_r>
   1281a:	6e63      	ldr	r3, [r4, #100]	; 0x64
   1281c:	4605      	mov	r5, r0
   1281e:	07da      	lsls	r2, r3, #31
   12820:	d4e0      	bmi.n	127e4 <_fflush_r+0xc>
   12822:	89a3      	ldrh	r3, [r4, #12]
   12824:	059b      	lsls	r3, r3, #22
   12826:	d4dd      	bmi.n	127e4 <_fflush_r+0xc>
   12828:	6da0      	ldr	r0, [r4, #88]	; 0x58
   1282a:	f000 fd30 	bl	1328e <__retarget_lock_release_recursive>
   1282e:	e7d9      	b.n	127e4 <_fflush_r+0xc>
   12830:	4b05      	ldr	r3, [pc, #20]	; (12848 <_fflush_r+0x70>)
   12832:	429c      	cmp	r4, r3
   12834:	d101      	bne.n	1283a <_fflush_r+0x62>
   12836:	68ac      	ldr	r4, [r5, #8]
   12838:	e7df      	b.n	127fa <_fflush_r+0x22>
   1283a:	4b04      	ldr	r3, [pc, #16]	; (1284c <_fflush_r+0x74>)
   1283c:	429c      	cmp	r4, r3
   1283e:	bf08      	it	eq
   12840:	68ec      	ldreq	r4, [r5, #12]
   12842:	e7da      	b.n	127fa <_fflush_r+0x22>
   12844:	000140ec 	.word	0x000140ec
   12848:	0001410c 	.word	0x0001410c
   1284c:	000140cc 	.word	0x000140cc

00012850 <__smakebuf_r>:
   12850:	898b      	ldrh	r3, [r1, #12]
   12852:	b573      	push	{r0, r1, r4, r5, r6, lr}
   12854:	079d      	lsls	r5, r3, #30
   12856:	4606      	mov	r6, r0
   12858:	460c      	mov	r4, r1
   1285a:	d507      	bpl.n	1286c <__smakebuf_r+0x1c>
   1285c:	f104 0347 	add.w	r3, r4, #71	; 0x47
   12860:	6023      	str	r3, [r4, #0]
   12862:	6123      	str	r3, [r4, #16]
   12864:	2301      	movs	r3, #1
   12866:	6163      	str	r3, [r4, #20]
   12868:	b002      	add	sp, #8
   1286a:	bd70      	pop	{r4, r5, r6, pc}
   1286c:	ab01      	add	r3, sp, #4
   1286e:	466a      	mov	r2, sp
   12870:	f000 ffd0 	bl	13814 <__swhatbuf_r>
   12874:	9900      	ldr	r1, [sp, #0]
   12876:	4605      	mov	r5, r0
   12878:	4630      	mov	r0, r6
   1287a:	f7ff f819 	bl	118b0 <_malloc_r>
   1287e:	b948      	cbnz	r0, 12894 <__smakebuf_r+0x44>
   12880:	f9b4 300c 	ldrsh.w	r3, [r4, #12]
   12884:	059a      	lsls	r2, r3, #22
   12886:	d4ef      	bmi.n	12868 <__smakebuf_r+0x18>
   12888:	f023 0303 	bic.w	r3, r3, #3
   1288c:	f043 0302 	orr.w	r3, r3, #2
   12890:	81a3      	strh	r3, [r4, #12]
   12892:	e7e3      	b.n	1285c <__smakebuf_r+0xc>
   12894:	4b0d      	ldr	r3, [pc, #52]	; (128cc <__smakebuf_r+0x7c>)
   12896:	62b3      	str	r3, [r6, #40]	; 0x28
   12898:	89a3      	ldrh	r3, [r4, #12]
   1289a:	6020      	str	r0, [r4, #0]
   1289c:	f043 0380 	orr.w	r3, r3, #128	; 0x80
   128a0:	6120      	str	r0, [r4, #16]
   128a2:	81a3      	strh	r3, [r4, #12]
   128a4:	9b00      	ldr	r3, [sp, #0]
   128a6:	6163      	str	r3, [r4, #20]
   128a8:	9b01      	ldr	r3, [sp, #4]
   128aa:	b15b      	cbz	r3, 128c4 <__smakebuf_r+0x74>
   128ac:	f9b4 100e 	ldrsh.w	r1, [r4, #14]
   128b0:	4630      	mov	r0, r6
   128b2:	f000 f81f 	bl	128f4 <_isatty_r>
   128b6:	b128      	cbz	r0, 128c4 <__smakebuf_r+0x74>
   128b8:	89a3      	ldrh	r3, [r4, #12]
   128ba:	f023 0303 	bic.w	r3, r3, #3
   128be:	f043 0301 	orr.w	r3, r3, #1
   128c2:	81a3      	strh	r3, [r4, #12]
   128c4:	89a3      	ldrh	r3, [r4, #12]
   128c6:	431d      	orrs	r5, r3
   128c8:	81a5      	strh	r5, [r4, #12]
   128ca:	e7cd      	b.n	12868 <__smakebuf_r+0x18>
   128cc:	000120c5 	.word	0x000120c5

000128d0 <_fstat_r>:
   128d0:	b538      	push	{r3, r4, r5, lr}
   128d2:	2300      	movs	r3, #0
   128d4:	4c06      	ldr	r4, [pc, #24]	; (128f0 <_fstat_r+0x20>)
   128d6:	4605      	mov	r5, r0
   128d8:	4608      	mov	r0, r1
   128da:	4611      	mov	r1, r2
   128dc:	6023      	str	r3, [r4, #0]
   128de:	f001 f8b5 	bl	13a4c <_fstat>
   128e2:	1c43      	adds	r3, r0, #1
   128e4:	d102      	bne.n	128ec <_fstat_r+0x1c>
   128e6:	6823      	ldr	r3, [r4, #0]
   128e8:	b103      	cbz	r3, 128ec <_fstat_r+0x1c>
   128ea:	602b      	str	r3, [r5, #0]
   128ec:	bd38      	pop	{r3, r4, r5, pc}
   128ee:	bf00      	nop
   128f0:	2003025c 	.word	0x2003025c

000128f4 <_isatty_r>:
   128f4:	b538      	push	{r3, r4, r5, lr}
   128f6:	2300      	movs	r3, #0
   128f8:	4c05      	ldr	r4, [pc, #20]	; (12910 <_isatty_r+0x1c>)
   128fa:	4605      	mov	r5, r0
   128fc:	4608      	mov	r0, r1
   128fe:	6023      	str	r3, [r4, #0]
   12900:	f001 f8b2 	bl	13a68 <_isatty>
   12904:	1c43      	adds	r3, r0, #1
   12906:	d102      	bne.n	1290e <_isatty_r+0x1a>
   12908:	6823      	ldr	r3, [r4, #0]
   1290a:	b103      	cbz	r3, 1290e <_isatty_r+0x1a>
   1290c:	602b      	str	r3, [r5, #0]
   1290e:	bd38      	pop	{r3, r4, r5, pc}
   12910:	2003025c 	.word	0x2003025c

00012914 <_sbrk>:
   12914:	b570      	push	{r4, r5, r6, lr}
   12916:	4d0c      	ldr	r5, [pc, #48]	; (12948 <_sbrk+0x34>)
   12918:	682b      	ldr	r3, [r5, #0]
   1291a:	b90b      	cbnz	r3, 12920 <_sbrk+0xc>
   1291c:	4b0b      	ldr	r3, [pc, #44]	; (1294c <_sbrk+0x38>)
   1291e:	602b      	str	r3, [r5, #0]
   12920:	1cc4      	adds	r4, r0, #3
   12922:	682e      	ldr	r6, [r5, #0]
   12924:	f024 0403 	bic.w	r4, r4, #3
   12928:	4434      	add	r4, r6
   1292a:	4620      	mov	r0, r4
   1292c:	f000 f89e 	bl	12a6c <__check_heap_overflow>
   12930:	b910      	cbnz	r0, 12938 <_sbrk+0x24>
   12932:	602c      	str	r4, [r5, #0]
   12934:	4630      	mov	r0, r6
   12936:	bd70      	pop	{r4, r5, r6, pc}
   12938:	f000 f96a 	bl	12c10 <__errno>
   1293c:	230c      	movs	r3, #12
   1293e:	f04f 36ff 	mov.w	r6, #4294967295
   12942:	6003      	str	r3, [r0, #0]
   12944:	e7f6      	b.n	12934 <_sbrk+0x20>
   12946:	bf00      	nop
   12948:	20030220 	.word	0x20030220
   1294c:	2003026c 	.word	0x2003026c

00012950 <initialise_monitor_handles>:
   12950:	e92d 4ff0 	stmdb	sp!, {r4, r5, r6, r7, r8, r9, sl, fp, lr}
   12954:	4e23      	ldr	r6, [pc, #140]	; (129e4 <initialise_monitor_handles+0x94>)
   12956:	b085      	sub	sp, #20
   12958:	6833      	ldr	r3, [r6, #0]
   1295a:	2b00      	cmp	r3, #0
   1295c:	d13f      	bne.n	129de <initialise_monitor_handles+0x8e>
   1295e:	f04f 0903 	mov.w	r9, #3
   12962:	f8df a094 	ldr.w	sl, [pc, #148]	; 129f8 <initialise_monitor_handles+0xa8>
   12966:	2401      	movs	r4, #1
   12968:	f8cd a004 	str.w	sl, [sp, #4]
   1296c:	f10d 0804 	add.w	r8, sp, #4
   12970:	f8cd 900c 	str.w	r9, [sp, #12]
   12974:	9302      	str	r3, [sp, #8]
   12976:	4620      	mov	r0, r4
   12978:	4641      	mov	r1, r8
   1297a:	beab      	bkpt	0x00ab
   1297c:	4605      	mov	r5, r0
   1297e:	2304      	movs	r3, #4
   12980:	4f19      	ldr	r7, [pc, #100]	; (129e8 <initialise_monitor_handles+0x98>)
   12982:	f8cd a004 	str.w	sl, [sp, #4]
   12986:	603d      	str	r5, [r7, #0]
   12988:	f8cd 900c 	str.w	r9, [sp, #12]
   1298c:	9302      	str	r3, [sp, #8]
   1298e:	4620      	mov	r0, r4
   12990:	4641      	mov	r1, r8
   12992:	beab      	bkpt	0x00ab
   12994:	4683      	mov	fp, r0
   12996:	2308      	movs	r3, #8
   12998:	4d14      	ldr	r5, [pc, #80]	; (129ec <initialise_monitor_handles+0x9c>)
   1299a:	f8cd a004 	str.w	sl, [sp, #4]
   1299e:	f8c5 b000 	str.w	fp, [r5]
   129a2:	f8cd 900c 	str.w	r9, [sp, #12]
   129a6:	9302      	str	r3, [sp, #8]
   129a8:	4620      	mov	r0, r4
   129aa:	4641      	mov	r1, r8
   129ac:	beab      	bkpt	0x00ab
   129ae:	4604      	mov	r4, r0
   129b0:	f04f 31ff 	mov.w	r1, #4294967295
   129b4:	4a0e      	ldr	r2, [pc, #56]	; (129f0 <initialise_monitor_handles+0xa0>)
   129b6:	6828      	ldr	r0, [r5, #0]
   129b8:	6014      	str	r4, [r2, #0]
   129ba:	3401      	adds	r4, #1
   129bc:	bf04      	itt	eq
   129be:	682b      	ldreq	r3, [r5, #0]
   129c0:	6013      	streq	r3, [r2, #0]
   129c2:	4b0c      	ldr	r3, [pc, #48]	; (129f4 <initialise_monitor_handles+0xa4>)
   129c4:	6812      	ldr	r2, [r2, #0]
   129c6:	6199      	str	r1, [r3, #24]
   129c8:	6219      	str	r1, [r3, #32]
   129ca:	6839      	ldr	r1, [r7, #0]
   129cc:	6019      	str	r1, [r3, #0]
   129ce:	2100      	movs	r1, #0
   129d0:	6059      	str	r1, [r3, #4]
   129d2:	e9c3 0102 	strd	r0, r1, [r3, #8]
   129d6:	e9c3 2104 	strd	r2, r1, [r3, #16]
   129da:	2301      	movs	r3, #1
   129dc:	6033      	str	r3, [r6, #0]
   129de:	b005      	add	sp, #20
   129e0:	e8bd 8ff0 	ldmia.w	sp!, {r4, r5, r6, r7, r8, r9, sl, fp, pc}
   129e4:	20030224 	.word	0x20030224
   129e8:	2003022c 	.word	0x2003022c
   129ec:	20030230 	.word	0x20030230
   129f0:	20030228 	.word	0x20030228
   129f4:	20030234 	.word	0x20030234
   129f8:	00014295 	.word	0x00014295

000129fc <findslot>:
   129fc:	2804      	cmp	r0, #4
   129fe:	b510      	push	{r4, lr}
   12a00:	4604      	mov	r4, r0
   12a02:	d901      	bls.n	12a08 <findslot+0xc>
   12a04:	2000      	movs	r0, #0
   12a06:	bd10      	pop	{r4, pc}
   12a08:	f7ff ffa2 	bl	12950 <initialise_monitor_handles>
   12a0c:	4803      	ldr	r0, [pc, #12]	; (12a1c <findslot+0x20>)
   12a0e:	f850 2034 	ldr.w	r2, [r0, r4, lsl #3]
   12a12:	3201      	adds	r2, #1
   12a14:	d0f6      	beq.n	12a04 <findslot+0x8>
   12a16:	eb00 00c4 	add.w	r0, r0, r4, lsl #3
   12a1a:	e7f4      	b.n	12a06 <findslot+0xa>
   12a1c:	20030234 	.word	0x20030234

00012a20 <_close>:
   12a20:	b538      	push	{r3, r4, r5, lr}
   12a22:	4605      	mov	r5, r0
   12a24:	f7ff ffea 	bl	129fc <findslot>
   12a28:	4604      	mov	r4, r0
   12a2a:	b930      	cbnz	r0, 12a3a <_close+0x1a>
   12a2c:	f000 f8f0 	bl	12c10 <__errno>
   12a30:	2309      	movs	r3, #9
   12a32:	6003      	str	r3, [r0, #0]
   12a34:	f04f 30ff 	mov.w	r0, #4294967295
   12a38:	bd38      	pop	{r3, r4, r5, pc}
   12a3a:	3d01      	subs	r5, #1
   12a3c:	2d01      	cmp	r5, #1
   12a3e:	d809      	bhi.n	12a54 <_close+0x34>
   12a40:	4b09      	ldr	r3, [pc, #36]	; (12a68 <_close+0x48>)
   12a42:	689a      	ldr	r2, [r3, #8]
   12a44:	691b      	ldr	r3, [r3, #16]
   12a46:	429a      	cmp	r2, r3
   12a48:	d104      	bne.n	12a54 <_close+0x34>
   12a4a:	f04f 33ff 	mov.w	r3, #4294967295
   12a4e:	6003      	str	r3, [r0, #0]
   12a50:	2000      	movs	r0, #0
   12a52:	e7f1      	b.n	12a38 <_close+0x18>
   12a54:	6820      	ldr	r0, [r4, #0]
   12a56:	f000 ffcb 	bl	139f0 <_swiclose>
   12a5a:	2800      	cmp	r0, #0
   12a5c:	d1ec      	bne.n	12a38 <_close+0x18>
   12a5e:	f04f 33ff 	mov.w	r3, #4294967295
   12a62:	6023      	str	r3, [r4, #0]
   12a64:	e7e8      	b.n	12a38 <_close+0x18>
   12a66:	bf00      	nop
   12a68:	20030234 	.word	0x20030234

00012a6c <__check_heap_overflow>:
   12a6c:	4b04      	ldr	r3, [pc, #16]	; (12a80 <__check_heap_overflow+0x14>)
   12a6e:	b123      	cbz	r3, 12a7a <__check_heap_overflow+0xe>
   12a70:	4298      	cmp	r0, r3
   12a72:	bf34      	ite	cc
   12a74:	2000      	movcc	r0, #0
   12a76:	2001      	movcs	r0, #1
   12a78:	4770      	bx	lr
   12a7a:	4618      	mov	r0, r3
   12a7c:	4770      	bx	lr
   12a7e:	bf00      	nop
   12a80:	2003126c 	.word	0x2003126c

00012a84 <__gedf2>:
   12a84:	f04f 3cff 	mov.w	ip, #4294967295
   12a88:	e006      	b.n	12a98 <__cmpdf2+0x4>
   12a8a:	bf00      	nop

00012a8c <__ledf2>:
   12a8c:	f04f 0c01 	mov.w	ip, #1
   12a90:	e002      	b.n	12a98 <__cmpdf2+0x4>
   12a92:	bf00      	nop

00012a94 <__cmpdf2>:
   12a94:	f04f 0c01 	mov.w	ip, #1
   12a98:	f84d cd04 	str.w	ip, [sp, #-4]!
   12a9c:	ea4f 0c41 	mov.w	ip, r1, lsl #1
   12aa0:	ea7f 5c6c 	mvns.w	ip, ip, asr #21
   12aa4:	ea4f 0c43 	mov.w	ip, r3, lsl #1
   12aa8:	bf18      	it	ne
   12aaa:	ea7f 5c6c 	mvnsne.w	ip, ip, asr #21
   12aae:	d01b      	beq.n	12ae8 <__cmpdf2+0x54>
   12ab0:	b001      	add	sp, #4
   12ab2:	ea50 0c41 	orrs.w	ip, r0, r1, lsl #1
   12ab6:	bf0c      	ite	eq
   12ab8:	ea52 0c43 	orrseq.w	ip, r2, r3, lsl #1
   12abc:	ea91 0f03 	teqne	r1, r3
   12ac0:	bf02      	ittt	eq
   12ac2:	ea90 0f02 	teqeq	r0, r2
   12ac6:	2000      	moveq	r0, #0
   12ac8:	4770      	bxeq	lr
   12aca:	f110 0f00 	cmn.w	r0, #0
   12ace:	ea91 0f03 	teq	r1, r3
   12ad2:	bf58      	it	pl
   12ad4:	4299      	cmppl	r1, r3
   12ad6:	bf08      	it	eq
   12ad8:	4290      	cmpeq	r0, r2
   12ada:	bf2c      	ite	cs
   12adc:	17d8      	asrcs	r0, r3, #31
   12ade:	ea6f 70e3 	mvncc.w	r0, r3, asr #31
   12ae2:	f040 0001 	orr.w	r0, r0, #1
   12ae6:	4770      	bx	lr
   12ae8:	ea4f 0c41 	mov.w	ip, r1, lsl #1
   12aec:	ea7f 5c6c 	mvns.w	ip, ip, asr #21
   12af0:	d102      	bne.n	12af8 <__cmpdf2+0x64>
   12af2:	ea50 3c01 	orrs.w	ip, r0, r1, lsl #12
   12af6:	d107      	bne.n	12b08 <__cmpdf2+0x74>
   12af8:	ea4f 0c43 	mov.w	ip, r3, lsl #1
   12afc:	ea7f 5c6c 	mvns.w	ip, ip, asr #21
   12b00:	d1d6      	bne.n	12ab0 <__cmpdf2+0x1c>
   12b02:	ea52 3c03 	orrs.w	ip, r2, r3, lsl #12
   12b06:	d0d3      	beq.n	12ab0 <__cmpdf2+0x1c>
   12b08:	f85d 0b04 	ldr.w	r0, [sp], #4
   12b0c:	4770      	bx	lr
   12b0e:	bf00      	nop

00012b10 <__aeabi_cdrcmple>:
   12b10:	4684      	mov	ip, r0
   12b12:	4610      	mov	r0, r2
   12b14:	4662      	mov	r2, ip
   12b16:	468c      	mov	ip, r1
   12b18:	4619      	mov	r1, r3
   12b1a:	4663      	mov	r3, ip
   12b1c:	e000      	b.n	12b20 <__aeabi_cdcmpeq>
   12b1e:	bf00      	nop

00012b20 <__aeabi_cdcmpeq>:
   12b20:	b501      	push	{r0, lr}
   12b22:	f7ff ffb7 	bl	12a94 <__cmpdf2>
   12b26:	2800      	cmp	r0, #0
   12b28:	bf48      	it	mi
   12b2a:	f110 0f00 	cmnmi.w	r0, #0
   12b2e:	bd01      	pop	{r0, pc}

00012b30 <__aeabi_dcmpeq>:
   12b30:	f84d ed08 	str.w	lr, [sp, #-8]!
   12b34:	f7ff fff4 	bl	12b20 <__aeabi_cdcmpeq>
   12b38:	bf0c      	ite	eq
   12b3a:	2001      	moveq	r0, #1
   12b3c:	2000      	movne	r0, #0
   12b3e:	f85d fb08 	ldr.w	pc, [sp], #8
   12b42:	bf00      	nop

00012b44 <__aeabi_dcmplt>:
   12b44:	f84d ed08 	str.w	lr, [sp, #-8]!
   12b48:	f7ff ffea 	bl	12b20 <__aeabi_cdcmpeq>
   12b4c:	bf34      	ite	cc
   12b4e:	2001      	movcc	r0, #1
   12b50:	2000      	movcs	r0, #0
   12b52:	f85d fb08 	ldr.w	pc, [sp], #8
   12b56:	bf00      	nop

00012b58 <__aeabi_dcmple>:
   12b58:	f84d ed08 	str.w	lr, [sp, #-8]!
   12b5c:	f7ff ffe0 	bl	12b20 <__aeabi_cdcmpeq>
   12b60:	bf94      	ite	ls
   12b62:	2001      	movls	r0, #1
   12b64:	2000      	movhi	r0, #0
   12b66:	f85d fb08 	ldr.w	pc, [sp], #8
   12b6a:	bf00      	nop

00012b6c <__aeabi_dcmpge>:
   12b6c:	f84d ed08 	str.w	lr, [sp, #-8]!
   12b70:	f7ff ffce 	bl	12b10 <__aeabi_cdrcmple>
   12b74:	bf94      	ite	ls
   12b76:	2001      	movls	r0, #1
   12b78:	2000      	movhi	r0, #0
   12b7a:	f85d fb08 	ldr.w	pc, [sp], #8
   12b7e:	bf00      	nop

00012b80 <__aeabi_dcmpgt>:
   12b80:	f84d ed08 	str.w	lr, [sp, #-8]!
   12b84:	f7ff ffc4 	bl	12b10 <__aeabi_cdrcmple>
   12b88:	bf34      	ite	cc
   12b8a:	2001      	movcc	r0, #1
   12b8c:	2000      	movcs	r0, #0
   12b8e:	f85d fb08 	ldr.w	pc, [sp], #8
   12b92:	bf00      	nop

00012b94 <__aeabi_dcmpun>:
   12b94:	ea4f 0c41 	mov.w	ip, r1, lsl #1
   12b98:	ea7f 5c6c 	mvns.w	ip, ip, asr #21
   12b9c:	d102      	bne.n	12ba4 <__aeabi_dcmpun+0x10>
   12b9e:	ea50 3c01 	orrs.w	ip, r0, r1, lsl #12
   12ba2:	d10a      	bne.n	12bba <__aeabi_dcmpun+0x26>
   12ba4:	ea4f 0c43 	mov.w	ip, r3, lsl #1
   12ba8:	ea7f 5c6c 	mvns.w	ip, ip, asr #21
   12bac:	d102      	bne.n	12bb4 <__aeabi_dcmpun+0x20>
   12bae:	ea52 3c03 	orrs.w	ip, r2, r3, lsl #12
   12bb2:	d102      	bne.n	12bba <__aeabi_dcmpun+0x26>
   12bb4:	f04f 0000 	mov.w	r0, #0
   12bb8:	4770      	bx	lr
   12bba:	f04f 0001 	mov.w	r0, #1
   12bbe:	4770      	bx	lr

00012bc0 <__aeabi_d2iz>:
   12bc0:	ea4f 0241 	mov.w	r2, r1, lsl #1
   12bc4:	f512 1200 	adds.w	r2, r2, #2097152	; 0x200000
   12bc8:	d215      	bcs.n	12bf6 <__aeabi_d2iz+0x36>
   12bca:	d511      	bpl.n	12bf0 <__aeabi_d2iz+0x30>
   12bcc:	f46f 7378 	mvn.w	r3, #992	; 0x3e0
   12bd0:	ebb3 5262 	subs.w	r2, r3, r2, asr #21
   12bd4:	d912      	bls.n	12bfc <__aeabi_d2iz+0x3c>
   12bd6:	ea4f 23c1 	mov.w	r3, r1, lsl #11
   12bda:	f043 4300 	orr.w	r3, r3, #2147483648	; 0x80000000
   12bde:	ea43 5350 	orr.w	r3, r3, r0, lsr #21
   12be2:	f011 4f00 	tst.w	r1, #2147483648	; 0x80000000
   12be6:	fa23 f002 	lsr.w	r0, r3, r2
   12bea:	bf18      	it	ne
   12bec:	4240      	negne	r0, r0
   12bee:	4770      	bx	lr
   12bf0:	f04f 0000 	mov.w	r0, #0
   12bf4:	4770      	bx	lr
   12bf6:	ea50 3001 	orrs.w	r0, r0, r1, lsl #12
   12bfa:	d105      	bne.n	12c08 <__aeabi_d2iz+0x48>
   12bfc:	f011 4000 	ands.w	r0, r1, #2147483648	; 0x80000000
   12c00:	bf08      	it	eq
   12c02:	f06f 4000 	mvneq.w	r0, #2147483648	; 0x80000000
   12c06:	4770      	bx	lr
   12c08:	f04f 0000 	mov.w	r0, #0
   12c0c:	4770      	bx	lr
   12c0e:	bf00      	nop

00012c10 <__errno>:
   12c10:	4b01      	ldr	r3, [pc, #4]	; (12c18 <__errno+0x8>)
   12c12:	6818      	ldr	r0, [r3, #0]
   12c14:	4770      	bx	lr
   12c16:	bf00      	nop
   12c18:	20030000 	.word	0x20030000

00012c1c <WDT_BOD_IRQHandler>:
   12c1c:	b508      	push	{r3, lr}
   12c1e:	f7fd fad9 	bl	101d4 <ACMP_DriverIRQHandler>
   12c22:	bd08      	pop	{r3, pc}

00012c24 <DMA0_IRQHandler>:
   12c24:	b508      	push	{r3, lr}
   12c26:	f7fd fad5 	bl	101d4 <ACMP_DriverIRQHandler>
   12c2a:	bd08      	pop	{r3, pc}

00012c2c <GINT0_IRQHandler>:
   12c2c:	b508      	push	{r3, lr}
   12c2e:	f7fd fad1 	bl	101d4 <ACMP_DriverIRQHandler>
   12c32:	bd08      	pop	{r3, pc}

00012c34 <GINT1_IRQHandler>:
   12c34:	b508      	push	{r3, lr}
   12c36:	f7fd facd 	bl	101d4 <ACMP_DriverIRQHandler>
   12c3a:	bd08      	pop	{r3, pc}

00012c3c <PIN_INT0_IRQHandler>:
   12c3c:	b508      	push	{r3, lr}
   12c3e:	f7fd fac9 	bl	101d4 <ACMP_DriverIRQHandler>
   12c42:	bd08      	pop	{r3, pc}

00012c44 <PIN_INT1_IRQHandler>:
   12c44:	b508      	push	{r3, lr}
   12c46:	f7fd fac5 	bl	101d4 <ACMP_DriverIRQHandler>
   12c4a:	bd08      	pop	{r3, pc}

00012c4c <PIN_INT2_IRQHandler>:
   12c4c:	b508      	push	{r3, lr}
   12c4e:	f7fd fac1 	bl	101d4 <ACMP_DriverIRQHandler>
   12c52:	bd08      	pop	{r3, pc}

00012c54 <PIN_INT3_IRQHandler>:
   12c54:	b508      	push	{r3, lr}
   12c56:	f7fd fabd 	bl	101d4 <ACMP_DriverIRQHandler>
   12c5a:	bd08      	pop	{r3, pc}

00012c5c <UTICK0_IRQHandler>:
   12c5c:	b508      	push	{r3, lr}
   12c5e:	f7fd fab9 	bl	101d4 <ACMP_DriverIRQHandler>
   12c62:	bd08      	pop	{r3, pc}

00012c64 <MRT0_IRQHandler>:
   12c64:	b508      	push	{r3, lr}
   12c66:	f7fd fab5 	bl	101d4 <ACMP_DriverIRQHandler>
   12c6a:	bd08      	pop	{r3, pc}

00012c6c <CTIMER0_IRQHandler>:
   12c6c:	b508      	push	{r3, lr}
   12c6e:	f7fd fab1 	bl	101d4 <ACMP_DriverIRQHandler>
   12c72:	bd08      	pop	{r3, pc}

00012c74 <CTIMER1_IRQHandler>:
   12c74:	b508      	push	{r3, lr}
   12c76:	f7fd faad 	bl	101d4 <ACMP_DriverIRQHandler>
   12c7a:	bd08      	pop	{r3, pc}

00012c7c <SCT0_IRQHandler>:
   12c7c:	b508      	push	{r3, lr}
   12c7e:	f7fd faa9 	bl	101d4 <ACMP_DriverIRQHandler>
   12c82:	bd08      	pop	{r3, pc}

00012c84 <CTIMER3_IRQHandler>:
   12c84:	b508      	push	{r3, lr}
   12c86:	f7fd faa5 	bl	101d4 <ACMP_DriverIRQHandler>
   12c8a:	bd08      	pop	{r3, pc}

00012c8c <FLEXCOMM0_IRQHandler>:
   12c8c:	b508      	push	{r3, lr}
   12c8e:	f7fe f8b5 	bl	10dfc <FLEXCOMM0_DriverIRQHandler>
   12c92:	bd08      	pop	{r3, pc}

00012c94 <FLEXCOMM1_IRQHandler>:
   12c94:	b508      	push	{r3, lr}
   12c96:	f7fe f8d3 	bl	10e40 <FLEXCOMM1_DriverIRQHandler>
   12c9a:	bd08      	pop	{r3, pc}

00012c9c <FLEXCOMM2_IRQHandler>:
   12c9c:	b508      	push	{r3, lr}
   12c9e:	f7fe f8f1 	bl	10e84 <FLEXCOMM2_DriverIRQHandler>
   12ca2:	bd08      	pop	{r3, pc}

00012ca4 <FLEXCOMM3_IRQHandler>:
   12ca4:	b508      	push	{r3, lr}
   12ca6:	f7fe f90f 	bl	10ec8 <FLEXCOMM3_DriverIRQHandler>
   12caa:	bd08      	pop	{r3, pc}

00012cac <FLEXCOMM4_IRQHandler>:
   12cac:	b508      	push	{r3, lr}
   12cae:	f7fe f92d 	bl	10f0c <FLEXCOMM4_DriverIRQHandler>
   12cb2:	bd08      	pop	{r3, pc}

00012cb4 <FLEXCOMM5_IRQHandler>:
   12cb4:	b508      	push	{r3, lr}
   12cb6:	f7fe f94b 	bl	10f50 <FLEXCOMM5_DriverIRQHandler>
   12cba:	bd08      	pop	{r3, pc}

00012cbc <FLEXCOMM6_IRQHandler>:
   12cbc:	b508      	push	{r3, lr}
   12cbe:	f7fe f969 	bl	10f94 <FLEXCOMM6_DriverIRQHandler>
   12cc2:	bd08      	pop	{r3, pc}

00012cc4 <FLEXCOMM7_IRQHandler>:
   12cc4:	b508      	push	{r3, lr}
   12cc6:	f7fe f987 	bl	10fd8 <FLEXCOMM7_DriverIRQHandler>
   12cca:	bd08      	pop	{r3, pc}

00012ccc <ADC0_IRQHandler>:
   12ccc:	b508      	push	{r3, lr}
   12cce:	f7fd fa81 	bl	101d4 <ACMP_DriverIRQHandler>
   12cd2:	bd08      	pop	{r3, pc}

00012cd4 <Reserved39_IRQHandler>:
   12cd4:	b508      	push	{r3, lr}
   12cd6:	f7fd fa7d 	bl	101d4 <ACMP_DriverIRQHandler>
   12cda:	bd08      	pop	{r3, pc}

00012cdc <ACMP_IRQHandler>:
   12cdc:	b508      	push	{r3, lr}
   12cde:	f7fd fa79 	bl	101d4 <ACMP_DriverIRQHandler>
   12ce2:	bd08      	pop	{r3, pc}

00012ce4 <Reserved41_IRQHandler>:
   12ce4:	b508      	push	{r3, lr}
   12ce6:	f7fd fa75 	bl	101d4 <ACMP_DriverIRQHandler>
   12cea:	bd08      	pop	{r3, pc}

00012cec <Reserved42_IRQHandler>:
   12cec:	b508      	push	{r3, lr}
   12cee:	f7fd fa71 	bl	101d4 <ACMP_DriverIRQHandler>
   12cf2:	bd08      	pop	{r3, pc}

00012cf4 <USB0_NEEDCLK_IRQHandler>:
   12cf4:	b508      	push	{r3, lr}
   12cf6:	f7fd fa6d 	bl	101d4 <ACMP_DriverIRQHandler>
   12cfa:	bd08      	pop	{r3, pc}

00012cfc <USB0_IRQHandler>:
   12cfc:	b508      	push	{r3, lr}
   12cfe:	f7fd fa69 	bl	101d4 <ACMP_DriverIRQHandler>
   12d02:	bd08      	pop	{r3, pc}

00012d04 <RTC_IRQHandler>:
   12d04:	b508      	push	{r3, lr}
   12d06:	f7fd fa65 	bl	101d4 <ACMP_DriverIRQHandler>
   12d0a:	bd08      	pop	{r3, pc}

00012d0c <Reserved46_IRQHandler>:
   12d0c:	b508      	push	{r3, lr}
   12d0e:	f7fd fa61 	bl	101d4 <ACMP_DriverIRQHandler>
   12d12:	bd08      	pop	{r3, pc}

00012d14 <MAILBOX_IRQHandler>:
   12d14:	b508      	push	{r3, lr}
   12d16:	f7fd fa5d 	bl	101d4 <ACMP_DriverIRQHandler>
   12d1a:	bd08      	pop	{r3, pc}

00012d1c <PIN_INT4_IRQHandler>:
   12d1c:	b508      	push	{r3, lr}
   12d1e:	f7fd fa59 	bl	101d4 <ACMP_DriverIRQHandler>
   12d22:	bd08      	pop	{r3, pc}

00012d24 <PIN_INT5_IRQHandler>:
   12d24:	b508      	push	{r3, lr}
   12d26:	f7fd fa55 	bl	101d4 <ACMP_DriverIRQHandler>
   12d2a:	bd08      	pop	{r3, pc}

00012d2c <PIN_INT6_IRQHandler>:
   12d2c:	b508      	push	{r3, lr}
   12d2e:	f7fd fa51 	bl	101d4 <ACMP_DriverIRQHandler>
   12d32:	bd08      	pop	{r3, pc}

00012d34 <PIN_INT7_IRQHandler>:
   12d34:	b508      	push	{r3, lr}
   12d36:	f7fd fa4d 	bl	101d4 <ACMP_DriverIRQHandler>
   12d3a:	bd08      	pop	{r3, pc}

00012d3c <CTIMER2_IRQHandler>:
   12d3c:	b508      	push	{r3, lr}
   12d3e:	f7fd fa49 	bl	101d4 <ACMP_DriverIRQHandler>
   12d42:	bd08      	pop	{r3, pc}

00012d44 <CTIMER4_IRQHandler>:
   12d44:	b508      	push	{r3, lr}
   12d46:	f7fd fa45 	bl	101d4 <ACMP_DriverIRQHandler>
   12d4a:	bd08      	pop	{r3, pc}

00012d4c <OS_EVENT_IRQHandler>:
   12d4c:	b508      	push	{r3, lr}
   12d4e:	f7fd fa41 	bl	101d4 <ACMP_DriverIRQHandler>
   12d52:	bd08      	pop	{r3, pc}

00012d54 <Reserved55_IRQHandler>:
   12d54:	b508      	push	{r3, lr}
   12d56:	f7fd fa3d 	bl	101d4 <ACMP_DriverIRQHandler>
   12d5a:	bd08      	pop	{r3, pc}

00012d5c <Reserved56_IRQHandler>:
   12d5c:	b508      	push	{r3, lr}
   12d5e:	f7fd fa39 	bl	101d4 <ACMP_DriverIRQHandler>
   12d62:	bd08      	pop	{r3, pc}

00012d64 <Reserved57_IRQHandler>:
   12d64:	b508      	push	{r3, lr}
   12d66:	f7fd fa35 	bl	101d4 <ACMP_DriverIRQHandler>
   12d6a:	bd08      	pop	{r3, pc}

00012d6c <SDIO_IRQHandler>:
   12d6c:	b508      	push	{r3, lr}
   12d6e:	f7fd fa31 	bl	101d4 <ACMP_DriverIRQHandler>
   12d72:	bd08      	pop	{r3, pc}

00012d74 <Reserved59_IRQHandler>:
   12d74:	b508      	push	{r3, lr}
   12d76:	f7fd fa2d 	bl	101d4 <ACMP_DriverIRQHandler>
   12d7a:	bd08      	pop	{r3, pc}

00012d7c <Reserved60_IRQHandler>:
   12d7c:	b508      	push	{r3, lr}
   12d7e:	f7fd fa29 	bl	101d4 <ACMP_DriverIRQHandler>
   12d82:	bd08      	pop	{r3, pc}

00012d84 <Reserved61_IRQHandler>:
   12d84:	b508      	push	{r3, lr}
   12d86:	f7fd fa25 	bl	101d4 <ACMP_DriverIRQHandler>
   12d8a:	bd08      	pop	{r3, pc}

00012d8c <USB1_UTMI_IRQHandler>:
   12d8c:	b508      	push	{r3, lr}
   12d8e:	f7fd fa21 	bl	101d4 <ACMP_DriverIRQHandler>
   12d92:	bd08      	pop	{r3, pc}

00012d94 <USB1_IRQHandler>:
   12d94:	b508      	push	{r3, lr}
   12d96:	f7fd fa1d 	bl	101d4 <ACMP_DriverIRQHandler>
   12d9a:	bd08      	pop	{r3, pc}

00012d9c <USB1_NEEDCLK_IRQHandler>:
   12d9c:	b508      	push	{r3, lr}
   12d9e:	f7fd fa19 	bl	101d4 <ACMP_DriverIRQHandler>
   12da2:	bd08      	pop	{r3, pc}

00012da4 <SEC_HYPERVISOR_CALL_IRQHandler>:
   12da4:	b508      	push	{r3, lr}
   12da6:	f7fd fa15 	bl	101d4 <ACMP_DriverIRQHandler>
   12daa:	bd08      	pop	{r3, pc}

00012dac <SEC_GPIO_INT0_IRQ0_IRQHandler>:
   12dac:	b508      	push	{r3, lr}
   12dae:	f7fd fa11 	bl	101d4 <ACMP_DriverIRQHandler>
   12db2:	bd08      	pop	{r3, pc}

00012db4 <SEC_GPIO_INT0_IRQ1_IRQHandler>:
   12db4:	b508      	push	{r3, lr}
   12db6:	f7fd fa0d 	bl	101d4 <ACMP_DriverIRQHandler>
   12dba:	bd08      	pop	{r3, pc}

00012dbc <PLU_IRQHandler>:
   12dbc:	b508      	push	{r3, lr}
   12dbe:	f7fd fa09 	bl	101d4 <ACMP_DriverIRQHandler>
   12dc2:	bd08      	pop	{r3, pc}

00012dc4 <SEC_VIO_IRQHandler>:
   12dc4:	b508      	push	{r3, lr}
   12dc6:	f7fd fa05 	bl	101d4 <ACMP_DriverIRQHandler>
   12dca:	bd08      	pop	{r3, pc}

00012dcc <HASHCRYPT_IRQHandler>:
   12dcc:	b508      	push	{r3, lr}
   12dce:	f7fd fa01 	bl	101d4 <ACMP_DriverIRQHandler>
   12dd2:	bd08      	pop	{r3, pc}

00012dd4 <CASER_IRQHandler>:
   12dd4:	b508      	push	{r3, lr}
   12dd6:	f7fd f9fd 	bl	101d4 <ACMP_DriverIRQHandler>
   12dda:	bd08      	pop	{r3, pc}

00012ddc <PUF_IRQHandler>:
   12ddc:	b508      	push	{r3, lr}
   12dde:	f7fd f9f9 	bl	101d4 <ACMP_DriverIRQHandler>
   12de2:	bd08      	pop	{r3, pc}

00012de4 <PQ_IRQHandler>:
   12de4:	b508      	push	{r3, lr}
   12de6:	f7fd f9f5 	bl	101d4 <ACMP_DriverIRQHandler>
   12dea:	bd08      	pop	{r3, pc}

00012dec <DMA1_IRQHandler>:
   12dec:	b508      	push	{r3, lr}
   12dee:	f7fd f9f1 	bl	101d4 <ACMP_DriverIRQHandler>
   12df2:	bd08      	pop	{r3, pc}

00012df4 <FLEXCOMM8_IRQHandler>:
   12df4:	b508      	push	{r3, lr}
   12df6:	f7fe f913 	bl	11020 <FLEXCOMM8_DriverIRQHandler>
   12dfa:	bd08      	pop	{r3, pc}

00012dfc <AppNBIOTInit>:
   12dfc:	b580      	push	{r7, lr}
   12dfe:	af00      	add	r7, sp, #0
   12e00:	2000      	movs	r0, #0
   12e02:	f7fd ffad 	bl	10d60 <ATSch>
   12e06:	bf00      	nop
   12e08:	4618      	mov	r0, r3
   12e0a:	bd80      	pop	{r7, pc}

00012e0c <SystemInit>:
   12e0c:	b480      	push	{r7}
   12e0e:	af00      	add	r7, sp, #0
   12e10:	bf00      	nop
   12e12:	46bd      	mov	sp, r7
   12e14:	f85d 7b04 	ldr.w	r7, [sp], #4
   12e18:	4770      	bx	lr

00012e1a <memcpy>:
   12e1a:	440a      	add	r2, r1
   12e1c:	1e43      	subs	r3, r0, #1
   12e1e:	4291      	cmp	r1, r2
   12e20:	d100      	bne.n	12e24 <memcpy+0xa>
   12e22:	4770      	bx	lr
   12e24:	b510      	push	{r4, lr}
   12e26:	f811 4b01 	ldrb.w	r4, [r1], #1
   12e2a:	4291      	cmp	r1, r2
   12e2c:	f803 4f01 	strb.w	r4, [r3, #1]!
   12e30:	d1f9      	bne.n	12e26 <memcpy+0xc>
   12e32:	bd10      	pop	{r4, pc}

00012e34 <memset>:
   12e34:	4402      	add	r2, r0
   12e36:	4603      	mov	r3, r0
   12e38:	4293      	cmp	r3, r2
   12e3a:	d100      	bne.n	12e3e <memset+0xa>
   12e3c:	4770      	bx	lr
   12e3e:	f803 1b01 	strb.w	r1, [r3], #1
   12e42:	e7f9      	b.n	12e38 <memset+0x4>

00012e44 <_calloc_r>:
   12e44:	b538      	push	{r3, r4, r5, lr}
   12e46:	fb02 f401 	mul.w	r4, r2, r1
   12e4a:	4621      	mov	r1, r4
   12e4c:	f7fe fd30 	bl	118b0 <_malloc_r>
   12e50:	4605      	mov	r5, r0
   12e52:	b118      	cbz	r0, 12e5c <_calloc_r+0x18>
   12e54:	4622      	mov	r2, r4
   12e56:	2100      	movs	r1, #0
   12e58:	f7ff ffec 	bl	12e34 <memset>
   12e5c:	4628      	mov	r0, r5
   12e5e:	bd38      	pop	{r3, r4, r5, pc}

00012e60 <__cvt>:
   12e60:	e92d 47ff 	stmdb	sp!, {r0, r1, r2, r3, r4, r5, r6, r7, r8, r9, sl, lr}
   12e64:	ec55 4b10 	vmov	r4, r5, d0
   12e68:	2d00      	cmp	r5, #0
   12e6a:	460e      	mov	r6, r1
   12e6c:	4691      	mov	r9, r2
   12e6e:	4619      	mov	r1, r3
   12e70:	f8dd a030 	ldr.w	sl, [sp, #48]	; 0x30
   12e74:	f04f 0200 	mov.w	r2, #0
   12e78:	da03      	bge.n	12e82 <__cvt+0x22>
   12e7a:	f105 4300 	add.w	r3, r5, #2147483648	; 0x80000000
   12e7e:	222d      	movs	r2, #45	; 0x2d
   12e80:	461d      	mov	r5, r3
   12e82:	9f0d      	ldr	r7, [sp, #52]	; 0x34
   12e84:	700a      	strb	r2, [r1, #0]
   12e86:	f027 0720 	bic.w	r7, r7, #32
   12e8a:	2f46      	cmp	r7, #70	; 0x46
   12e8c:	d004      	beq.n	12e98 <__cvt+0x38>
   12e8e:	2f45      	cmp	r7, #69	; 0x45
   12e90:	d100      	bne.n	12e94 <__cvt+0x34>
   12e92:	3601      	adds	r6, #1
   12e94:	2102      	movs	r1, #2
   12e96:	e000      	b.n	12e9a <__cvt+0x3a>
   12e98:	2103      	movs	r1, #3
   12e9a:	ab03      	add	r3, sp, #12
   12e9c:	4632      	mov	r2, r6
   12e9e:	9301      	str	r3, [sp, #4]
   12ea0:	ab02      	add	r3, sp, #8
   12ea2:	ec45 4b10 	vmov	d0, r4, r5
   12ea6:	9300      	str	r3, [sp, #0]
   12ea8:	4653      	mov	r3, sl
   12eaa:	f7fd f995 	bl	101d8 <_dtoa_r>
   12eae:	2f47      	cmp	r7, #71	; 0x47
   12eb0:	4680      	mov	r8, r0
   12eb2:	d102      	bne.n	12eba <__cvt+0x5a>
   12eb4:	f019 0f01 	tst.w	r9, #1
   12eb8:	d022      	beq.n	12f00 <__cvt+0xa0>
   12eba:	2f46      	cmp	r7, #70	; 0x46
   12ebc:	eb08 0906 	add.w	r9, r8, r6
   12ec0:	d111      	bne.n	12ee6 <__cvt+0x86>
   12ec2:	f898 3000 	ldrb.w	r3, [r8]
   12ec6:	2b30      	cmp	r3, #48	; 0x30
   12ec8:	d10a      	bne.n	12ee0 <__cvt+0x80>
   12eca:	2200      	movs	r2, #0
   12ecc:	2300      	movs	r3, #0
   12ece:	4620      	mov	r0, r4
   12ed0:	4629      	mov	r1, r5
   12ed2:	f7ff fe2d 	bl	12b30 <__aeabi_dcmpeq>
   12ed6:	b918      	cbnz	r0, 12ee0 <__cvt+0x80>
   12ed8:	f1c6 0601 	rsb	r6, r6, #1
   12edc:	f8ca 6000 	str.w	r6, [sl]
   12ee0:	f8da 3000 	ldr.w	r3, [sl]
   12ee4:	4499      	add	r9, r3
   12ee6:	2200      	movs	r2, #0
   12ee8:	2300      	movs	r3, #0
   12eea:	4620      	mov	r0, r4
   12eec:	4629      	mov	r1, r5
   12eee:	f7ff fe1f 	bl	12b30 <__aeabi_dcmpeq>
   12ef2:	b108      	cbz	r0, 12ef8 <__cvt+0x98>
   12ef4:	f8cd 900c 	str.w	r9, [sp, #12]
   12ef8:	2230      	movs	r2, #48	; 0x30
   12efa:	9b03      	ldr	r3, [sp, #12]
   12efc:	454b      	cmp	r3, r9
   12efe:	d308      	bcc.n	12f12 <__cvt+0xb2>
   12f00:	9b03      	ldr	r3, [sp, #12]
   12f02:	4640      	mov	r0, r8
   12f04:	9a0e      	ldr	r2, [sp, #56]	; 0x38
   12f06:	eba3 0308 	sub.w	r3, r3, r8
   12f0a:	6013      	str	r3, [r2, #0]
   12f0c:	b004      	add	sp, #16
   12f0e:	e8bd 87f0 	ldmia.w	sp!, {r4, r5, r6, r7, r8, r9, sl, pc}
   12f12:	1c59      	adds	r1, r3, #1
   12f14:	9103      	str	r1, [sp, #12]
   12f16:	701a      	strb	r2, [r3, #0]
   12f18:	e7ef      	b.n	12efa <__cvt+0x9a>

00012f1a <__exponent>:
   12f1a:	b5f7      	push	{r0, r1, r2, r4, r5, r6, r7, lr}
   12f1c:	2900      	cmp	r1, #0
   12f1e:	7002      	strb	r2, [r0, #0]
   12f20:	bfba      	itte	lt
   12f22:	4249      	neglt	r1, r1
   12f24:	232d      	movlt	r3, #45	; 0x2d
   12f26:	232b      	movge	r3, #43	; 0x2b
   12f28:	2909      	cmp	r1, #9
   12f2a:	7043      	strb	r3, [r0, #1]
   12f2c:	dd22      	ble.n	12f74 <__exponent+0x5a>
   12f2e:	f10d 0307 	add.w	r3, sp, #7
   12f32:	260a      	movs	r6, #10
   12f34:	461f      	mov	r7, r3
   12f36:	2963      	cmp	r1, #99	; 0x63
   12f38:	f103 35ff 	add.w	r5, r3, #4294967295
   12f3c:	fb91 f2f6 	sdiv	r2, r1, r6
   12f40:	fb06 1412 	mls	r4, r6, r2, r1
   12f44:	f104 0430 	add.w	r4, r4, #48	; 0x30
   12f48:	f803 4c01 	strb.w	r4, [r3, #-1]
   12f4c:	dc0a      	bgt.n	12f64 <__exponent+0x4a>
   12f4e:	3230      	adds	r2, #48	; 0x30
   12f50:	3b02      	subs	r3, #2
   12f52:	f805 2c01 	strb.w	r2, [r5, #-1]
   12f56:	1c82      	adds	r2, r0, #2
   12f58:	42bb      	cmp	r3, r7
   12f5a:	4614      	mov	r4, r2
   12f5c:	d305      	bcc.n	12f6a <__exponent+0x50>
   12f5e:	1a20      	subs	r0, r4, r0
   12f60:	b003      	add	sp, #12
   12f62:	bdf0      	pop	{r4, r5, r6, r7, pc}
   12f64:	462b      	mov	r3, r5
   12f66:	4611      	mov	r1, r2
   12f68:	e7e5      	b.n	12f36 <__exponent+0x1c>
   12f6a:	f813 1b01 	ldrb.w	r1, [r3], #1
   12f6e:	f802 1b01 	strb.w	r1, [r2], #1
   12f72:	e7f1      	b.n	12f58 <__exponent+0x3e>
   12f74:	2330      	movs	r3, #48	; 0x30
   12f76:	1d04      	adds	r4, r0, #4
   12f78:	4419      	add	r1, r3
   12f7a:	7083      	strb	r3, [r0, #2]
   12f7c:	70c1      	strb	r1, [r0, #3]
   12f7e:	e7ee      	b.n	12f5e <__exponent+0x44>

00012f80 <_printf_common>:
   12f80:	e92d 47f0 	stmdb	sp!, {r4, r5, r6, r7, r8, r9, sl, lr}
   12f84:	4691      	mov	r9, r2
   12f86:	461f      	mov	r7, r3
   12f88:	688a      	ldr	r2, [r1, #8]
   12f8a:	4606      	mov	r6, r0
   12f8c:	690b      	ldr	r3, [r1, #16]
   12f8e:	460c      	mov	r4, r1
   12f90:	f8dd 8020 	ldr.w	r8, [sp, #32]
   12f94:	4293      	cmp	r3, r2
   12f96:	bfb8      	it	lt
   12f98:	4613      	movlt	r3, r2
   12f9a:	f8c9 3000 	str.w	r3, [r9]
   12f9e:	f891 2043 	ldrb.w	r2, [r1, #67]	; 0x43
   12fa2:	b112      	cbz	r2, 12faa <_printf_common+0x2a>
   12fa4:	3301      	adds	r3, #1
   12fa6:	f8c9 3000 	str.w	r3, [r9]
   12faa:	6823      	ldr	r3, [r4, #0]
   12fac:	0699      	lsls	r1, r3, #26
   12fae:	bf42      	ittt	mi
   12fb0:	f8d9 3000 	ldrmi.w	r3, [r9]
   12fb4:	3302      	addmi	r3, #2
   12fb6:	f8c9 3000 	strmi.w	r3, [r9]
   12fba:	6825      	ldr	r5, [r4, #0]
   12fbc:	f015 0506 	ands.w	r5, r5, #6
   12fc0:	d107      	bne.n	12fd2 <_printf_common+0x52>
   12fc2:	f104 0a19 	add.w	sl, r4, #25
   12fc6:	68e3      	ldr	r3, [r4, #12]
   12fc8:	f8d9 2000 	ldr.w	r2, [r9]
   12fcc:	1a9b      	subs	r3, r3, r2
   12fce:	42ab      	cmp	r3, r5
   12fd0:	dc2b      	bgt.n	1302a <_printf_common+0xaa>
   12fd2:	f894 3043 	ldrb.w	r3, [r4, #67]	; 0x43
   12fd6:	6822      	ldr	r2, [r4, #0]
   12fd8:	3300      	adds	r3, #0
   12fda:	bf18      	it	ne
   12fdc:	2301      	movne	r3, #1
   12fde:	0692      	lsls	r2, r2, #26
   12fe0:	d430      	bmi.n	13044 <_printf_common+0xc4>
   12fe2:	f104 0243 	add.w	r2, r4, #67	; 0x43
   12fe6:	4639      	mov	r1, r7
   12fe8:	4630      	mov	r0, r6
   12fea:	47c0      	blx	r8
   12fec:	3001      	adds	r0, #1
   12fee:	d023      	beq.n	13038 <_printf_common+0xb8>
   12ff0:	6823      	ldr	r3, [r4, #0]
   12ff2:	341a      	adds	r4, #26
   12ff4:	f854 5c0e 	ldr.w	r5, [r4, #-14]
   12ff8:	f003 0306 	and.w	r3, r3, #6
   12ffc:	f8d9 2000 	ldr.w	r2, [r9]
   13000:	f04f 0900 	mov.w	r9, #0
   13004:	2b04      	cmp	r3, #4
   13006:	f854 3c12 	ldr.w	r3, [r4, #-18]
   1300a:	bf08      	it	eq
   1300c:	1aad      	subeq	r5, r5, r2
   1300e:	f854 2c0a 	ldr.w	r2, [r4, #-10]
   13012:	bf14      	ite	ne
   13014:	2500      	movne	r5, #0
   13016:	ea25 75e5 	biceq.w	r5, r5, r5, asr #31
   1301a:	4293      	cmp	r3, r2
   1301c:	bfc4      	itt	gt
   1301e:	1a9b      	subgt	r3, r3, r2
   13020:	18ed      	addgt	r5, r5, r3
   13022:	454d      	cmp	r5, r9
   13024:	d11a      	bne.n	1305c <_printf_common+0xdc>
   13026:	2000      	movs	r0, #0
   13028:	e008      	b.n	1303c <_printf_common+0xbc>
   1302a:	2301      	movs	r3, #1
   1302c:	4652      	mov	r2, sl
   1302e:	4639      	mov	r1, r7
   13030:	4630      	mov	r0, r6
   13032:	47c0      	blx	r8
   13034:	3001      	adds	r0, #1
   13036:	d103      	bne.n	13040 <_printf_common+0xc0>
   13038:	f04f 30ff 	mov.w	r0, #4294967295
   1303c:	e8bd 87f0 	ldmia.w	sp!, {r4, r5, r6, r7, r8, r9, sl, pc}
   13040:	3501      	adds	r5, #1
   13042:	e7c0      	b.n	12fc6 <_printf_common+0x46>
   13044:	18e1      	adds	r1, r4, r3
   13046:	1c5a      	adds	r2, r3, #1
   13048:	2030      	movs	r0, #48	; 0x30
   1304a:	3302      	adds	r3, #2
   1304c:	4422      	add	r2, r4
   1304e:	f881 0043 	strb.w	r0, [r1, #67]	; 0x43
   13052:	f894 1045 	ldrb.w	r1, [r4, #69]	; 0x45
   13056:	f882 1043 	strb.w	r1, [r2, #67]	; 0x43
   1305a:	e7c2      	b.n	12fe2 <_printf_common+0x62>
   1305c:	2301      	movs	r3, #1
   1305e:	4622      	mov	r2, r4
   13060:	4639      	mov	r1, r7
   13062:	4630      	mov	r0, r6
   13064:	47c0      	blx	r8
   13066:	3001      	adds	r0, #1
   13068:	d0e6      	beq.n	13038 <_printf_common+0xb8>
   1306a:	f109 0901 	add.w	r9, r9, #1
   1306e:	e7d8      	b.n	13022 <_printf_common+0xa2>

00013070 <__sread>:
   13070:	b510      	push	{r4, lr}
   13072:	460c      	mov	r4, r1
   13074:	f9b1 100e 	ldrsh.w	r1, [r1, #14]
   13078:	f7ff fa58 	bl	1252c <_read_r>
   1307c:	2800      	cmp	r0, #0
   1307e:	bfab      	itete	ge
   13080:	6d63      	ldrge	r3, [r4, #84]	; 0x54
   13082:	89a3      	ldrhlt	r3, [r4, #12]
   13084:	181b      	addge	r3, r3, r0
   13086:	f423 5380 	biclt.w	r3, r3, #4096	; 0x1000
   1308a:	bfac      	ite	ge
   1308c:	6563      	strge	r3, [r4, #84]	; 0x54
   1308e:	81a3      	strhlt	r3, [r4, #12]
   13090:	bd10      	pop	{r4, pc}

00013092 <__swrite>:
   13092:	e92d 41f0 	stmdb	sp!, {r4, r5, r6, r7, r8, lr}
   13096:	461f      	mov	r7, r3
   13098:	898b      	ldrh	r3, [r1, #12]
   1309a:	4605      	mov	r5, r0
   1309c:	460c      	mov	r4, r1
   1309e:	05db      	lsls	r3, r3, #23
   130a0:	4616      	mov	r6, r2
   130a2:	d505      	bpl.n	130b0 <__swrite+0x1e>
   130a4:	2302      	movs	r3, #2
   130a6:	2200      	movs	r2, #0
   130a8:	f9b1 100e 	ldrsh.w	r1, [r1, #14]
   130ac:	f7ff f8aa 	bl	12204 <_lseek_r>
   130b0:	89a3      	ldrh	r3, [r4, #12]
   130b2:	4632      	mov	r2, r6
   130b4:	f9b4 100e 	ldrsh.w	r1, [r4, #14]
   130b8:	4628      	mov	r0, r5
   130ba:	f423 5380 	bic.w	r3, r3, #4096	; 0x1000
   130be:	81a3      	strh	r3, [r4, #12]
   130c0:	463b      	mov	r3, r7
   130c2:	e8bd 41f0 	ldmia.w	sp!, {r4, r5, r6, r7, r8, lr}
   130c6:	f7fe bfb7 	b.w	12038 <_write_r>

000130ca <__sseek>:
   130ca:	b510      	push	{r4, lr}
   130cc:	460c      	mov	r4, r1
   130ce:	f9b1 100e 	ldrsh.w	r1, [r1, #14]
   130d2:	f7ff f897 	bl	12204 <_lseek_r>
   130d6:	1c43      	adds	r3, r0, #1
   130d8:	89a3      	ldrh	r3, [r4, #12]
   130da:	bf15      	itete	ne
   130dc:	6560      	strne	r0, [r4, #84]	; 0x54
   130de:	f423 5380 	biceq.w	r3, r3, #4096	; 0x1000
   130e2:	f443 5380 	orrne.w	r3, r3, #4096	; 0x1000
   130e6:	81a3      	strheq	r3, [r4, #12]
   130e8:	bf18      	it	ne
   130ea:	81a3      	strhne	r3, [r4, #12]
   130ec:	bd10      	pop	{r4, pc}

000130ee <__sclose>:
   130ee:	f9b1 100e 	ldrsh.w	r1, [r1, #14]
   130f2:	f7fe bfb3 	b.w	1205c <_close_r>

000130f6 <strlen>:
   130f6:	4603      	mov	r3, r0
   130f8:	f813 2b01 	ldrb.w	r2, [r3], #1
   130fc:	2a00      	cmp	r2, #0
   130fe:	d1fb      	bne.n	130f8 <strlen+0x2>
   13100:	1a18      	subs	r0, r3, r0
   13102:	3801      	subs	r0, #1
   13104:	4770      	bx	lr

00013106 <quorem>:
   13106:	e92d 4ff7 	stmdb	sp!, {r0, r1, r2, r4, r5, r6, r7, r8, r9, sl, fp, lr}
   1310a:	6903      	ldr	r3, [r0, #16]
   1310c:	4680      	mov	r8, r0
   1310e:	690c      	ldr	r4, [r1, #16]
   13110:	42a3      	cmp	r3, r4
   13112:	f2c0 8084 	blt.w	1321e <quorem+0x118>
   13116:	3c01      	subs	r4, #1
   13118:	f108 0514 	add.w	r5, r8, #20
   1311c:	f101 0714 	add.w	r7, r1, #20
   13120:	00a0      	lsls	r0, r4, #2
   13122:	f855 2024 	ldr.w	r2, [r5, r4, lsl #2]
   13126:	182b      	adds	r3, r5, r0
   13128:	eb07 0900 	add.w	r9, r7, r0
   1312c:	9301      	str	r3, [sp, #4]
   1312e:	f857 3024 	ldr.w	r3, [r7, r4, lsl #2]
   13132:	3301      	adds	r3, #1
   13134:	429a      	cmp	r2, r3
   13136:	fbb2 f6f3 	udiv	r6, r2, r3
   1313a:	d333      	bcc.n	131a4 <quorem+0x9e>
   1313c:	f04f 0a00 	mov.w	sl, #0
   13140:	46bc      	mov	ip, r7
   13142:	46ae      	mov	lr, r5
   13144:	46d3      	mov	fp, sl
   13146:	f85c 2b04 	ldr.w	r2, [ip], #4
   1314a:	b293      	uxth	r3, r2
   1314c:	45e1      	cmp	r9, ip
   1314e:	ea4f 4212 	mov.w	r2, r2, lsr #16
   13152:	fb06 a303 	mla	r3, r6, r3, sl
   13156:	ea4f 4a13 	mov.w	sl, r3, lsr #16
   1315a:	b29b      	uxth	r3, r3
   1315c:	fb06 a202 	mla	r2, r6, r2, sl
   13160:	ebab 0303 	sub.w	r3, fp, r3
   13164:	f8de b000 	ldr.w	fp, [lr]
   13168:	ea4f 4a12 	mov.w	sl, r2, lsr #16
   1316c:	fa1f fb8b 	uxth.w	fp, fp
   13170:	445b      	add	r3, fp
   13172:	fa1f fb82 	uxth.w	fp, r2
   13176:	f8de 2000 	ldr.w	r2, [lr]
   1317a:	ebcb 4212 	rsb	r2, fp, r2, lsr #16
   1317e:	eb02 4223 	add.w	r2, r2, r3, asr #16
   13182:	b29b      	uxth	r3, r3
   13184:	ea4f 4b22 	mov.w	fp, r2, asr #16
   13188:	ea43 4302 	orr.w	r3, r3, r2, lsl #16
   1318c:	f84e 3b04 	str.w	r3, [lr], #4
   13190:	d2d9      	bcs.n	13146 <quorem+0x40>
   13192:	582b      	ldr	r3, [r5, r0]
   13194:	b933      	cbnz	r3, 131a4 <quorem+0x9e>
   13196:	9b01      	ldr	r3, [sp, #4]
   13198:	3b04      	subs	r3, #4
   1319a:	429d      	cmp	r5, r3
   1319c:	461a      	mov	r2, r3
   1319e:	d332      	bcc.n	13206 <quorem+0x100>
   131a0:	f8c8 4010 	str.w	r4, [r8, #16]
   131a4:	4640      	mov	r0, r8
   131a6:	f000 fa44 	bl	13632 <__mcmp>
   131aa:	2800      	cmp	r0, #0
   131ac:	db27      	blt.n	131fe <quorem+0xf8>
   131ae:	3601      	adds	r6, #1
   131b0:	4628      	mov	r0, r5
   131b2:	f04f 0c00 	mov.w	ip, #0
   131b6:	f857 1b04 	ldr.w	r1, [r7], #4
   131ba:	f8d0 e000 	ldr.w	lr, [r0]
   131be:	b28b      	uxth	r3, r1
   131c0:	45b9      	cmp	r9, r7
   131c2:	fa1f f28e 	uxth.w	r2, lr
   131c6:	ebac 0303 	sub.w	r3, ip, r3
   131ca:	4413      	add	r3, r2
   131cc:	ea4f 4211 	mov.w	r2, r1, lsr #16
   131d0:	ebc2 421e 	rsb	r2, r2, lr, lsr #16
   131d4:	eb02 4223 	add.w	r2, r2, r3, asr #16
   131d8:	b29b      	uxth	r3, r3
   131da:	ea4f 4c22 	mov.w	ip, r2, asr #16
   131de:	ea43 4302 	orr.w	r3, r3, r2, lsl #16
   131e2:	f840 3b04 	str.w	r3, [r0], #4
   131e6:	d2e6      	bcs.n	131b6 <quorem+0xb0>
   131e8:	f855 2024 	ldr.w	r2, [r5, r4, lsl #2]
   131ec:	eb05 0384 	add.w	r3, r5, r4, lsl #2
   131f0:	b92a      	cbnz	r2, 131fe <quorem+0xf8>
   131f2:	3b04      	subs	r3, #4
   131f4:	429d      	cmp	r5, r3
   131f6:	461a      	mov	r2, r3
   131f8:	d30b      	bcc.n	13212 <quorem+0x10c>
   131fa:	f8c8 4010 	str.w	r4, [r8, #16]
   131fe:	4630      	mov	r0, r6
   13200:	b003      	add	sp, #12
   13202:	e8bd 8ff0 	ldmia.w	sp!, {r4, r5, r6, r7, r8, r9, sl, fp, pc}
   13206:	6812      	ldr	r2, [r2, #0]
   13208:	3b04      	subs	r3, #4
   1320a:	2a00      	cmp	r2, #0
   1320c:	d1c8      	bne.n	131a0 <quorem+0x9a>
   1320e:	3c01      	subs	r4, #1
   13210:	e7c3      	b.n	1319a <quorem+0x94>
   13212:	6812      	ldr	r2, [r2, #0]
   13214:	3b04      	subs	r3, #4
   13216:	2a00      	cmp	r2, #0
   13218:	d1ef      	bne.n	131fa <quorem+0xf4>
   1321a:	3c01      	subs	r4, #1
   1321c:	e7ea      	b.n	131f4 <quorem+0xee>
   1321e:	2000      	movs	r0, #0
   13220:	e7ee      	b.n	13200 <quorem+0xfa>

00013222 <__sfmoreglue>:
   13222:	b570      	push	{r4, r5, r6, lr}
   13224:	1e4a      	subs	r2, r1, #1
   13226:	2568      	movs	r5, #104	; 0x68
   13228:	460e      	mov	r6, r1
   1322a:	4355      	muls	r5, r2
   1322c:	f105 0174 	add.w	r1, r5, #116	; 0x74
   13230:	f7fe fb3e 	bl	118b0 <_malloc_r>
   13234:	4604      	mov	r4, r0
   13236:	b140      	cbz	r0, 1324a <__sfmoreglue+0x28>
   13238:	2100      	movs	r1, #0
   1323a:	f105 0268 	add.w	r2, r5, #104	; 0x68
   1323e:	e9c0 1600 	strd	r1, r6, [r0]
   13242:	300c      	adds	r0, #12
   13244:	60a0      	str	r0, [r4, #8]
   13246:	f7ff fdf5 	bl	12e34 <memset>
   1324a:	4620      	mov	r0, r4
   1324c:	bd70      	pop	{r4, r5, r6, pc}

0001324e <_fwalk_reent>:
   1324e:	e92d 43f8 	stmdb	sp!, {r3, r4, r5, r6, r7, r8, r9, lr}
   13252:	4680      	mov	r8, r0
   13254:	4689      	mov	r9, r1
   13256:	f100 0448 	add.w	r4, r0, #72	; 0x48
   1325a:	2600      	movs	r6, #0
   1325c:	b914      	cbnz	r4, 13264 <_fwalk_reent+0x16>
   1325e:	4630      	mov	r0, r6
   13260:	e8bd 83f8 	ldmia.w	sp!, {r3, r4, r5, r6, r7, r8, r9, pc}
   13264:	e9d4 7501 	ldrd	r7, r5, [r4, #4]
   13268:	3f01      	subs	r7, #1
   1326a:	d501      	bpl.n	13270 <_fwalk_reent+0x22>
   1326c:	6824      	ldr	r4, [r4, #0]
   1326e:	e7f5      	b.n	1325c <_fwalk_reent+0xe>
   13270:	89ab      	ldrh	r3, [r5, #12]
   13272:	2b01      	cmp	r3, #1
   13274:	d907      	bls.n	13286 <_fwalk_reent+0x38>
   13276:	f9b5 300e 	ldrsh.w	r3, [r5, #14]
   1327a:	3301      	adds	r3, #1
   1327c:	d003      	beq.n	13286 <_fwalk_reent+0x38>
   1327e:	4629      	mov	r1, r5
   13280:	4640      	mov	r0, r8
   13282:	47c8      	blx	r9
   13284:	4306      	orrs	r6, r0
   13286:	3568      	adds	r5, #104	; 0x68
   13288:	e7ee      	b.n	13268 <_fwalk_reent+0x1a>

0001328a <__retarget_lock_init_recursive>:
   1328a:	4770      	bx	lr

0001328c <__retarget_lock_acquire_recursive>:
   1328c:	4770      	bx	lr

0001328e <__retarget_lock_release_recursive>:
   1328e:	4770      	bx	lr

00013290 <memchr>:
   13290:	b2c9      	uxtb	r1, r1
   13292:	4402      	add	r2, r0
   13294:	b510      	push	{r4, lr}
   13296:	4290      	cmp	r0, r2
   13298:	4603      	mov	r3, r0
   1329a:	d101      	bne.n	132a0 <memchr+0x10>
   1329c:	2300      	movs	r3, #0
   1329e:	e003      	b.n	132a8 <memchr+0x18>
   132a0:	781c      	ldrb	r4, [r3, #0]
   132a2:	3001      	adds	r0, #1
   132a4:	428c      	cmp	r4, r1
   132a6:	d1f6      	bne.n	13296 <memchr+0x6>
   132a8:	4618      	mov	r0, r3
   132aa:	bd10      	pop	{r4, pc}

000132ac <_Balloc>:
   132ac:	b570      	push	{r4, r5, r6, lr}
   132ae:	6a45      	ldr	r5, [r0, #36]	; 0x24
   132b0:	4604      	mov	r4, r0
   132b2:	460e      	mov	r6, r1
   132b4:	b93d      	cbnz	r5, 132c6 <_Balloc+0x1a>
   132b6:	2010      	movs	r0, #16
   132b8:	f7fe faa4 	bl	11804 <malloc>
   132bc:	6260      	str	r0, [r4, #36]	; 0x24
   132be:	6005      	str	r5, [r0, #0]
   132c0:	60c5      	str	r5, [r0, #12]
   132c2:	e9c0 5501 	strd	r5, r5, [r0, #4]
   132c6:	6a65      	ldr	r5, [r4, #36]	; 0x24
   132c8:	68eb      	ldr	r3, [r5, #12]
   132ca:	b183      	cbz	r3, 132ee <_Balloc+0x42>
   132cc:	6a63      	ldr	r3, [r4, #36]	; 0x24
   132ce:	68db      	ldr	r3, [r3, #12]
   132d0:	f853 0026 	ldr.w	r0, [r3, r6, lsl #2]
   132d4:	b9b8      	cbnz	r0, 13306 <_Balloc+0x5a>
   132d6:	2101      	movs	r1, #1
   132d8:	4620      	mov	r0, r4
   132da:	fa01 f506 	lsl.w	r5, r1, r6
   132de:	1d6a      	adds	r2, r5, #5
   132e0:	0092      	lsls	r2, r2, #2
   132e2:	f7ff fdaf 	bl	12e44 <_calloc_r>
   132e6:	b160      	cbz	r0, 13302 <_Balloc+0x56>
   132e8:	e9c0 6501 	strd	r6, r5, [r0, #4]
   132ec:	e00e      	b.n	1330c <_Balloc+0x60>
   132ee:	2221      	movs	r2, #33	; 0x21
   132f0:	2104      	movs	r1, #4
   132f2:	4620      	mov	r0, r4
   132f4:	f7ff fda6 	bl	12e44 <_calloc_r>
   132f8:	6a63      	ldr	r3, [r4, #36]	; 0x24
   132fa:	60e8      	str	r0, [r5, #12]
   132fc:	68db      	ldr	r3, [r3, #12]
   132fe:	2b00      	cmp	r3, #0
   13300:	d1e4      	bne.n	132cc <_Balloc+0x20>
   13302:	2000      	movs	r0, #0
   13304:	bd70      	pop	{r4, r5, r6, pc}
   13306:	6802      	ldr	r2, [r0, #0]
   13308:	f843 2026 	str.w	r2, [r3, r6, lsl #2]
   1330c:	2300      	movs	r3, #0
   1330e:	e9c0 3303 	strd	r3, r3, [r0, #12]
   13312:	e7f7      	b.n	13304 <_Balloc+0x58>

00013314 <_Bfree>:
   13314:	b570      	push	{r4, r5, r6, lr}
   13316:	6a44      	ldr	r4, [r0, #36]	; 0x24
   13318:	4606      	mov	r6, r0
   1331a:	460d      	mov	r5, r1
   1331c:	b93c      	cbnz	r4, 1332e <_Bfree+0x1a>
   1331e:	2010      	movs	r0, #16
   13320:	f7fe fa70 	bl	11804 <malloc>
   13324:	6270      	str	r0, [r6, #36]	; 0x24
   13326:	6004      	str	r4, [r0, #0]
   13328:	60c4      	str	r4, [r0, #12]
   1332a:	e9c0 4401 	strd	r4, r4, [r0, #4]
   1332e:	b13d      	cbz	r5, 13340 <_Bfree+0x2c>
   13330:	6a73      	ldr	r3, [r6, #36]	; 0x24
   13332:	686a      	ldr	r2, [r5, #4]
   13334:	68db      	ldr	r3, [r3, #12]
   13336:	f853 1022 	ldr.w	r1, [r3, r2, lsl #2]
   1333a:	6029      	str	r1, [r5, #0]
   1333c:	f843 5022 	str.w	r5, [r3, r2, lsl #2]
   13340:	bd70      	pop	{r4, r5, r6, pc}

00013342 <__multadd>:
   13342:	e92d 41f0 	stmdb	sp!, {r4, r5, r6, r7, r8, lr}
   13346:	f101 0c14 	add.w	ip, r1, #20
   1334a:	461f      	mov	r7, r3
   1334c:	4606      	mov	r6, r0
   1334e:	460c      	mov	r4, r1
   13350:	690d      	ldr	r5, [r1, #16]
   13352:	2300      	movs	r3, #0
   13354:	f8dc 0000 	ldr.w	r0, [ip]
   13358:	3301      	adds	r3, #1
   1335a:	b281      	uxth	r1, r0
   1335c:	429d      	cmp	r5, r3
   1335e:	ea4f 4010 	mov.w	r0, r0, lsr #16
   13362:	fb02 7101 	mla	r1, r2, r1, r7
   13366:	ea4f 4711 	mov.w	r7, r1, lsr #16
   1336a:	b289      	uxth	r1, r1
   1336c:	fb02 7000 	mla	r0, r2, r0, r7
   13370:	eb01 4100 	add.w	r1, r1, r0, lsl #16
   13374:	ea4f 4710 	mov.w	r7, r0, lsr #16
   13378:	f84c 1b04 	str.w	r1, [ip], #4
   1337c:	dcea      	bgt.n	13354 <__multadd+0x12>
   1337e:	b1d7      	cbz	r7, 133b6 <__multadd+0x74>
   13380:	68a3      	ldr	r3, [r4, #8]
   13382:	42ab      	cmp	r3, r5
   13384:	dc12      	bgt.n	133ac <__multadd+0x6a>
   13386:	6861      	ldr	r1, [r4, #4]
   13388:	4630      	mov	r0, r6
   1338a:	3101      	adds	r1, #1
   1338c:	f7ff ff8e 	bl	132ac <_Balloc>
   13390:	6922      	ldr	r2, [r4, #16]
   13392:	4680      	mov	r8, r0
   13394:	f104 010c 	add.w	r1, r4, #12
   13398:	3202      	adds	r2, #2
   1339a:	300c      	adds	r0, #12
   1339c:	0092      	lsls	r2, r2, #2
   1339e:	f7ff fd3c 	bl	12e1a <memcpy>
   133a2:	4621      	mov	r1, r4
   133a4:	4644      	mov	r4, r8
   133a6:	4630      	mov	r0, r6
   133a8:	f7ff ffb4 	bl	13314 <_Bfree>
   133ac:	eb04 0385 	add.w	r3, r4, r5, lsl #2
   133b0:	3501      	adds	r5, #1
   133b2:	615f      	str	r7, [r3, #20]
   133b4:	6125      	str	r5, [r4, #16]
   133b6:	4620      	mov	r0, r4
   133b8:	e8bd 81f0 	ldmia.w	sp!, {r4, r5, r6, r7, r8, pc}

000133bc <__hi0bits>:
   133bc:	0c02      	lsrs	r2, r0, #16
   133be:	4603      	mov	r3, r0
   133c0:	0412      	lsls	r2, r2, #16
   133c2:	b9ca      	cbnz	r2, 133f8 <__hi0bits+0x3c>
   133c4:	0403      	lsls	r3, r0, #16
   133c6:	2010      	movs	r0, #16
   133c8:	f013 4f7f 	tst.w	r3, #4278190080	; 0xff000000
   133cc:	bf04      	itt	eq
   133ce:	021b      	lsleq	r3, r3, #8
   133d0:	3008      	addeq	r0, #8
   133d2:	f013 4f70 	tst.w	r3, #4026531840	; 0xf0000000
   133d6:	bf04      	itt	eq
   133d8:	011b      	lsleq	r3, r3, #4
   133da:	3004      	addeq	r0, #4
   133dc:	f013 4f40 	tst.w	r3, #3221225472	; 0xc0000000
   133e0:	bf04      	itt	eq
   133e2:	009b      	lsleq	r3, r3, #2
   133e4:	3002      	addeq	r0, #2
   133e6:	2b00      	cmp	r3, #0
   133e8:	db05      	blt.n	133f6 <__hi0bits+0x3a>
   133ea:	f013 4f80 	tst.w	r3, #1073741824	; 0x40000000
   133ee:	f100 0001 	add.w	r0, r0, #1
   133f2:	bf08      	it	eq
   133f4:	2020      	moveq	r0, #32
   133f6:	4770      	bx	lr
   133f8:	2000      	movs	r0, #0
   133fa:	e7e5      	b.n	133c8 <__hi0bits+0xc>

000133fc <__lo0bits>:
   133fc:	6803      	ldr	r3, [r0, #0]
   133fe:	4601      	mov	r1, r0
   13400:	f013 0207 	ands.w	r2, r3, #7
   13404:	d00b      	beq.n	1341e <__lo0bits+0x22>
   13406:	07da      	lsls	r2, r3, #31
   13408:	d424      	bmi.n	13454 <__lo0bits+0x58>
   1340a:	0798      	lsls	r0, r3, #30
   1340c:	bf47      	ittee	mi
   1340e:	085b      	lsrmi	r3, r3, #1
   13410:	2001      	movmi	r0, #1
   13412:	089b      	lsrpl	r3, r3, #2
   13414:	2002      	movpl	r0, #2
   13416:	bf4c      	ite	mi
   13418:	600b      	strmi	r3, [r1, #0]
   1341a:	600b      	strpl	r3, [r1, #0]
   1341c:	4770      	bx	lr
   1341e:	b298      	uxth	r0, r3
   13420:	b9b0      	cbnz	r0, 13450 <__lo0bits+0x54>
   13422:	0c1b      	lsrs	r3, r3, #16
   13424:	2010      	movs	r0, #16
   13426:	f013 0fff 	tst.w	r3, #255	; 0xff
   1342a:	bf04      	itt	eq
   1342c:	0a1b      	lsreq	r3, r3, #8
   1342e:	3008      	addeq	r0, #8
   13430:	071a      	lsls	r2, r3, #28
   13432:	bf04      	itt	eq
   13434:	091b      	lsreq	r3, r3, #4
   13436:	3004      	addeq	r0, #4
   13438:	079a      	lsls	r2, r3, #30
   1343a:	bf04      	itt	eq
   1343c:	089b      	lsreq	r3, r3, #2
   1343e:	3002      	addeq	r0, #2
   13440:	07da      	lsls	r2, r3, #31
   13442:	d403      	bmi.n	1344c <__lo0bits+0x50>
   13444:	085b      	lsrs	r3, r3, #1
   13446:	f100 0001 	add.w	r0, r0, #1
   1344a:	d005      	beq.n	13458 <__lo0bits+0x5c>
   1344c:	600b      	str	r3, [r1, #0]
   1344e:	4770      	bx	lr
   13450:	4610      	mov	r0, r2
   13452:	e7e8      	b.n	13426 <__lo0bits+0x2a>
   13454:	2000      	movs	r0, #0
   13456:	4770      	bx	lr
   13458:	2020      	movs	r0, #32
   1345a:	4770      	bx	lr

0001345c <__i2b>:
   1345c:	b510      	push	{r4, lr}
   1345e:	460c      	mov	r4, r1
   13460:	2101      	movs	r1, #1
   13462:	f7ff ff23 	bl	132ac <_Balloc>
   13466:	2201      	movs	r2, #1
   13468:	6144      	str	r4, [r0, #20]
   1346a:	6102      	str	r2, [r0, #16]
   1346c:	bd10      	pop	{r4, pc}

0001346e <__multiply>:
   1346e:	e92d 4ff7 	stmdb	sp!, {r0, r1, r2, r4, r5, r6, r7, r8, r9, sl, fp, lr}
   13472:	4690      	mov	r8, r2
   13474:	690a      	ldr	r2, [r1, #16]
   13476:	460c      	mov	r4, r1
   13478:	f8d8 3010 	ldr.w	r3, [r8, #16]
   1347c:	429a      	cmp	r2, r3
   1347e:	bfbe      	ittt	lt
   13480:	460b      	movlt	r3, r1
   13482:	4644      	movlt	r4, r8
   13484:	4698      	movlt	r8, r3
   13486:	6927      	ldr	r7, [r4, #16]
   13488:	68a3      	ldr	r3, [r4, #8]
   1348a:	f8d8 9010 	ldr.w	r9, [r8, #16]
   1348e:	6861      	ldr	r1, [r4, #4]
   13490:	eb07 0609 	add.w	r6, r7, r9
   13494:	42b3      	cmp	r3, r6
   13496:	bfb8      	it	lt
   13498:	3101      	addlt	r1, #1
   1349a:	f7ff ff07 	bl	132ac <_Balloc>
   1349e:	f100 0514 	add.w	r5, r0, #20
   134a2:	2200      	movs	r2, #0
   134a4:	eb05 0e86 	add.w	lr, r5, r6, lsl #2
   134a8:	462b      	mov	r3, r5
   134aa:	4573      	cmp	r3, lr
   134ac:	d316      	bcc.n	134dc <__multiply+0x6e>
   134ae:	f104 0314 	add.w	r3, r4, #20
   134b2:	f108 0214 	add.w	r2, r8, #20
   134b6:	eb03 0787 	add.w	r7, r3, r7, lsl #2
   134ba:	eb02 0389 	add.w	r3, r2, r9, lsl #2
   134be:	9300      	str	r3, [sp, #0]
   134c0:	9b00      	ldr	r3, [sp, #0]
   134c2:	9201      	str	r2, [sp, #4]
   134c4:	4293      	cmp	r3, r2
   134c6:	d80c      	bhi.n	134e2 <__multiply+0x74>
   134c8:	2e00      	cmp	r6, #0
   134ca:	dd03      	ble.n	134d4 <__multiply+0x66>
   134cc:	f85e 3d04 	ldr.w	r3, [lr, #-4]!
   134d0:	2b00      	cmp	r3, #0
   134d2:	d059      	beq.n	13588 <__multiply+0x11a>
   134d4:	6106      	str	r6, [r0, #16]
   134d6:	b003      	add	sp, #12
   134d8:	e8bd 8ff0 	ldmia.w	sp!, {r4, r5, r6, r7, r8, r9, sl, fp, pc}
   134dc:	f843 2b04 	str.w	r2, [r3], #4
   134e0:	e7e3      	b.n	134aa <__multiply+0x3c>
   134e2:	f8b2 a000 	ldrh.w	sl, [r2]
   134e6:	f1ba 0f00 	cmp.w	sl, #0
   134ea:	d023      	beq.n	13534 <__multiply+0xc6>
   134ec:	f104 0914 	add.w	r9, r4, #20
   134f0:	46ac      	mov	ip, r5
   134f2:	f04f 0800 	mov.w	r8, #0
   134f6:	f859 1b04 	ldr.w	r1, [r9], #4
   134fa:	f8dc b000 	ldr.w	fp, [ip]
   134fe:	b28b      	uxth	r3, r1
   13500:	454f      	cmp	r7, r9
   13502:	fa1f fb8b 	uxth.w	fp, fp
   13506:	fb0a b303 	mla	r3, sl, r3, fp
   1350a:	ea4f 4b11 	mov.w	fp, r1, lsr #16
   1350e:	f8dc 1000 	ldr.w	r1, [ip]
   13512:	4443      	add	r3, r8
   13514:	ea4f 4811 	mov.w	r8, r1, lsr #16
   13518:	fb0a 810b 	mla	r1, sl, fp, r8
   1351c:	eb01 4113 	add.w	r1, r1, r3, lsr #16
   13520:	b29b      	uxth	r3, r3
   13522:	ea4f 4811 	mov.w	r8, r1, lsr #16
   13526:	ea43 4301 	orr.w	r3, r3, r1, lsl #16
   1352a:	f84c 3b04 	str.w	r3, [ip], #4
   1352e:	d8e2      	bhi.n	134f6 <__multiply+0x88>
   13530:	f8cc 8000 	str.w	r8, [ip]
   13534:	9b01      	ldr	r3, [sp, #4]
   13536:	3204      	adds	r2, #4
   13538:	f8b3 9002 	ldrh.w	r9, [r3, #2]
   1353c:	f1b9 0f00 	cmp.w	r9, #0
   13540:	d020      	beq.n	13584 <__multiply+0x116>
   13542:	682b      	ldr	r3, [r5, #0]
   13544:	f104 0814 	add.w	r8, r4, #20
   13548:	46ac      	mov	ip, r5
   1354a:	f04f 0a00 	mov.w	sl, #0
   1354e:	f8b8 1000 	ldrh.w	r1, [r8]
   13552:	b29b      	uxth	r3, r3
   13554:	f8bc b002 	ldrh.w	fp, [ip, #2]
   13558:	fb09 b101 	mla	r1, r9, r1, fp
   1355c:	448a      	add	sl, r1
   1355e:	ea43 430a 	orr.w	r3, r3, sl, lsl #16
   13562:	f84c 3b04 	str.w	r3, [ip], #4
   13566:	f858 3b04 	ldr.w	r3, [r8], #4
   1356a:	f8bc 1000 	ldrh.w	r1, [ip]
   1356e:	0c1b      	lsrs	r3, r3, #16
   13570:	4547      	cmp	r7, r8
   13572:	fb09 1303 	mla	r3, r9, r3, r1
   13576:	eb03 431a 	add.w	r3, r3, sl, lsr #16
   1357a:	ea4f 4a13 	mov.w	sl, r3, lsr #16
   1357e:	d8e6      	bhi.n	1354e <__multiply+0xe0>
   13580:	f8cc 3000 	str.w	r3, [ip]
   13584:	3504      	adds	r5, #4
   13586:	e79b      	b.n	134c0 <__multiply+0x52>
   13588:	3e01      	subs	r6, #1
   1358a:	e79d      	b.n	134c8 <__multiply+0x5a>

0001358c <__lshift>:
   1358c:	e92d 47f0 	stmdb	sp!, {r4, r5, r6, r7, r8, r9, sl, lr}
   13590:	460c      	mov	r4, r1
   13592:	ea4f 1a62 	mov.w	sl, r2, asr #5
   13596:	4607      	mov	r7, r0
   13598:	4616      	mov	r6, r2
   1359a:	6923      	ldr	r3, [r4, #16]
   1359c:	6849      	ldr	r1, [r1, #4]
   1359e:	eb0a 0903 	add.w	r9, sl, r3
   135a2:	68a3      	ldr	r3, [r4, #8]
   135a4:	f109 0501 	add.w	r5, r9, #1
   135a8:	42ab      	cmp	r3, r5
   135aa:	db33      	blt.n	13614 <__lshift+0x88>
   135ac:	4638      	mov	r0, r7
   135ae:	f7ff fe7d 	bl	132ac <_Balloc>
   135b2:	2300      	movs	r3, #0
   135b4:	4680      	mov	r8, r0
   135b6:	f100 0114 	add.w	r1, r0, #20
   135ba:	f100 0210 	add.w	r2, r0, #16
   135be:	4618      	mov	r0, r3
   135c0:	4553      	cmp	r3, sl
   135c2:	db2a      	blt.n	1361a <__lshift+0x8e>
   135c4:	ea2a 7aea 	bic.w	sl, sl, sl, asr #31
   135c8:	f104 0314 	add.w	r3, r4, #20
   135cc:	6920      	ldr	r0, [r4, #16]
   135ce:	f016 021f 	ands.w	r2, r6, #31
   135d2:	eb01 018a 	add.w	r1, r1, sl, lsl #2
   135d6:	eb03 0c80 	add.w	ip, r3, r0, lsl #2
   135da:	d022      	beq.n	13622 <__lshift+0x96>
   135dc:	f1c2 0e20 	rsb	lr, r2, #32
   135e0:	2000      	movs	r0, #0
   135e2:	681e      	ldr	r6, [r3, #0]
   135e4:	4096      	lsls	r6, r2
   135e6:	4330      	orrs	r0, r6
   135e8:	f841 0b04 	str.w	r0, [r1], #4
   135ec:	f853 0b04 	ldr.w	r0, [r3], #4
   135f0:	459c      	cmp	ip, r3
   135f2:	fa20 f00e 	lsr.w	r0, r0, lr
   135f6:	d8f4      	bhi.n	135e2 <__lshift+0x56>
   135f8:	6008      	str	r0, [r1, #0]
   135fa:	b108      	cbz	r0, 13600 <__lshift+0x74>
   135fc:	f109 0502 	add.w	r5, r9, #2
   13600:	3d01      	subs	r5, #1
   13602:	4638      	mov	r0, r7
   13604:	4621      	mov	r1, r4
   13606:	f8c8 5010 	str.w	r5, [r8, #16]
   1360a:	f7ff fe83 	bl	13314 <_Bfree>
   1360e:	4640      	mov	r0, r8
   13610:	e8bd 87f0 	ldmia.w	sp!, {r4, r5, r6, r7, r8, r9, sl, pc}
   13614:	3101      	adds	r1, #1
   13616:	005b      	lsls	r3, r3, #1
   13618:	e7c6      	b.n	135a8 <__lshift+0x1c>
   1361a:	f842 0f04 	str.w	r0, [r2, #4]!
   1361e:	3301      	adds	r3, #1
   13620:	e7ce      	b.n	135c0 <__lshift+0x34>
   13622:	3904      	subs	r1, #4
   13624:	f853 2b04 	ldr.w	r2, [r3], #4
   13628:	459c      	cmp	ip, r3
   1362a:	f841 2f04 	str.w	r2, [r1, #4]!
   1362e:	d8f9      	bhi.n	13624 <__lshift+0x98>
   13630:	e7e6      	b.n	13600 <__lshift+0x74>

00013632 <__mcmp>:
   13632:	6903      	ldr	r3, [r0, #16]
   13634:	690a      	ldr	r2, [r1, #16]
   13636:	1a9b      	subs	r3, r3, r2
   13638:	b530      	push	{r4, r5, lr}
   1363a:	d10c      	bne.n	13656 <__mcmp+0x24>
   1363c:	0092      	lsls	r2, r2, #2
   1363e:	3014      	adds	r0, #20
   13640:	3114      	adds	r1, #20
   13642:	1884      	adds	r4, r0, r2
   13644:	4411      	add	r1, r2
   13646:	f854 5d04 	ldr.w	r5, [r4, #-4]!
   1364a:	f851 2d04 	ldr.w	r2, [r1, #-4]!
   1364e:	4295      	cmp	r5, r2
   13650:	d003      	beq.n	1365a <__mcmp+0x28>
   13652:	d305      	bcc.n	13660 <__mcmp+0x2e>
   13654:	2301      	movs	r3, #1
   13656:	4618      	mov	r0, r3
   13658:	bd30      	pop	{r4, r5, pc}
   1365a:	42a0      	cmp	r0, r4
   1365c:	d3f3      	bcc.n	13646 <__mcmp+0x14>
   1365e:	e7fa      	b.n	13656 <__mcmp+0x24>
   13660:	f04f 33ff 	mov.w	r3, #4294967295
   13664:	e7f7      	b.n	13656 <__mcmp+0x24>

00013666 <__mdiff>:
   13666:	e92d 47f0 	stmdb	sp!, {r4, r5, r6, r7, r8, r9, sl, lr}
   1366a:	460d      	mov	r5, r1
   1366c:	4607      	mov	r7, r0
   1366e:	4611      	mov	r1, r2
   13670:	4614      	mov	r4, r2
   13672:	4628      	mov	r0, r5
   13674:	f7ff ffdd 	bl	13632 <__mcmp>
   13678:	1e06      	subs	r6, r0, #0
   1367a:	d108      	bne.n	1368e <__mdiff+0x28>
   1367c:	4631      	mov	r1, r6
   1367e:	4638      	mov	r0, r7
   13680:	f7ff fe14 	bl	132ac <_Balloc>
   13684:	2301      	movs	r3, #1
   13686:	e9c0 3604 	strd	r3, r6, [r0, #16]
   1368a:	e8bd 87f0 	ldmia.w	sp!, {r4, r5, r6, r7, r8, r9, sl, pc}
   1368e:	bfa3      	ittte	ge
   13690:	4623      	movge	r3, r4
   13692:	462c      	movge	r4, r5
   13694:	2600      	movge	r6, #0
   13696:	2601      	movlt	r6, #1
   13698:	bfa8      	it	ge
   1369a:	461d      	movge	r5, r3
   1369c:	6861      	ldr	r1, [r4, #4]
   1369e:	4638      	mov	r0, r7
   136a0:	f7ff fe04 	bl	132ac <_Balloc>
   136a4:	f105 0914 	add.w	r9, r5, #20
   136a8:	60c6      	str	r6, [r0, #12]
   136aa:	f104 0214 	add.w	r2, r4, #20
   136ae:	6926      	ldr	r6, [r4, #16]
   136b0:	f100 0114 	add.w	r1, r0, #20
   136b4:	692b      	ldr	r3, [r5, #16]
   136b6:	f04f 0e00 	mov.w	lr, #0
   136ba:	eb02 0786 	add.w	r7, r2, r6, lsl #2
   136be:	eb09 0883 	add.w	r8, r9, r3, lsl #2
   136c2:	f852 ab04 	ldr.w	sl, [r2], #4
   136c6:	f859 5b04 	ldr.w	r5, [r9], #4
   136ca:	fa1f f38a 	uxth.w	r3, sl
   136ce:	4694      	mov	ip, r2
   136d0:	b2ac      	uxth	r4, r5
   136d2:	45c8      	cmp	r8, r9
   136d4:	4473      	add	r3, lr
   136d6:	eba3 0304 	sub.w	r3, r3, r4
   136da:	ea4f 4415 	mov.w	r4, r5, lsr #16
   136de:	ebc4 441a 	rsb	r4, r4, sl, lsr #16
   136e2:	eb04 4423 	add.w	r4, r4, r3, asr #16
   136e6:	b29b      	uxth	r3, r3
   136e8:	ea4f 4e24 	mov.w	lr, r4, asr #16
   136ec:	ea43 4404 	orr.w	r4, r3, r4, lsl #16
   136f0:	f841 4b04 	str.w	r4, [r1], #4
   136f4:	d8e5      	bhi.n	136c2 <__mdiff+0x5c>
   136f6:	45bc      	cmp	ip, r7
   136f8:	d304      	bcc.n	13704 <__mdiff+0x9e>
   136fa:	f851 3d04 	ldr.w	r3, [r1, #-4]!
   136fe:	b183      	cbz	r3, 13722 <__mdiff+0xbc>
   13700:	6106      	str	r6, [r0, #16]
   13702:	e7c2      	b.n	1368a <__mdiff+0x24>
   13704:	f85c 4b04 	ldr.w	r4, [ip], #4
   13708:	b2a2      	uxth	r2, r4
   1370a:	4472      	add	r2, lr
   1370c:	1413      	asrs	r3, r2, #16
   1370e:	b292      	uxth	r2, r2
   13710:	eb03 4314 	add.w	r3, r3, r4, lsr #16
   13714:	ea42 4203 	orr.w	r2, r2, r3, lsl #16
   13718:	ea4f 4e23 	mov.w	lr, r3, asr #16
   1371c:	f841 2b04 	str.w	r2, [r1], #4
   13720:	e7e9      	b.n	136f6 <__mdiff+0x90>
   13722:	3e01      	subs	r6, #1
   13724:	e7e9      	b.n	136fa <__mdiff+0x94>

00013726 <__d2b>:
   13726:	e92d 43f7 	stmdb	sp!, {r0, r1, r2, r4, r5, r6, r7, r8, r9, lr}
   1372a:	ec59 8b10 	vmov	r8, r9, d0
   1372e:	f3c9 540a 	ubfx	r4, r9, #20, #11
   13732:	460e      	mov	r6, r1
   13734:	2101      	movs	r1, #1
   13736:	4615      	mov	r5, r2
   13738:	f7ff fdb8 	bl	132ac <_Balloc>
   1373c:	f3c9 0313 	ubfx	r3, r9, #0, #20
   13740:	4607      	mov	r7, r0
   13742:	bb2c      	cbnz	r4, 13790 <__d2b+0x6a>
   13744:	9301      	str	r3, [sp, #4]
   13746:	f1b8 0300 	subs.w	r3, r8, #0
   1374a:	d026      	beq.n	1379a <__d2b+0x74>
   1374c:	4668      	mov	r0, sp
   1374e:	9300      	str	r3, [sp, #0]
   13750:	f7ff fe54 	bl	133fc <__lo0bits>
   13754:	9900      	ldr	r1, [sp, #0]
   13756:	b1f0      	cbz	r0, 13796 <__d2b+0x70>
   13758:	9a01      	ldr	r2, [sp, #4]
   1375a:	f1c0 0320 	rsb	r3, r0, #32
   1375e:	fa02 f303 	lsl.w	r3, r2, r3
   13762:	40c2      	lsrs	r2, r0
   13764:	430b      	orrs	r3, r1
   13766:	9201      	str	r2, [sp, #4]
   13768:	617b      	str	r3, [r7, #20]
   1376a:	9b01      	ldr	r3, [sp, #4]
   1376c:	2b00      	cmp	r3, #0
   1376e:	61bb      	str	r3, [r7, #24]
   13770:	bf14      	ite	ne
   13772:	2102      	movne	r1, #2
   13774:	2101      	moveq	r1, #1
   13776:	6139      	str	r1, [r7, #16]
   13778:	b1c4      	cbz	r4, 137ac <__d2b+0x86>
   1377a:	f2a4 4433 	subw	r4, r4, #1075	; 0x433
   1377e:	4404      	add	r4, r0
   13780:	f1c0 0035 	rsb	r0, r0, #53	; 0x35
   13784:	6034      	str	r4, [r6, #0]
   13786:	6028      	str	r0, [r5, #0]
   13788:	4638      	mov	r0, r7
   1378a:	b003      	add	sp, #12
   1378c:	e8bd 83f0 	ldmia.w	sp!, {r4, r5, r6, r7, r8, r9, pc}
   13790:	f443 1380 	orr.w	r3, r3, #1048576	; 0x100000
   13794:	e7d6      	b.n	13744 <__d2b+0x1e>
   13796:	6179      	str	r1, [r7, #20]
   13798:	e7e7      	b.n	1376a <__d2b+0x44>
   1379a:	a801      	add	r0, sp, #4
   1379c:	f7ff fe2e 	bl	133fc <__lo0bits>
   137a0:	9b01      	ldr	r3, [sp, #4]
   137a2:	2101      	movs	r1, #1
   137a4:	3020      	adds	r0, #32
   137a6:	617b      	str	r3, [r7, #20]
   137a8:	6139      	str	r1, [r7, #16]
   137aa:	e7e5      	b.n	13778 <__d2b+0x52>
   137ac:	f2a0 4032 	subw	r0, r0, #1074	; 0x432
   137b0:	eb07 0381 	add.w	r3, r7, r1, lsl #2
   137b4:	6030      	str	r0, [r6, #0]
   137b6:	6918      	ldr	r0, [r3, #16]
   137b8:	f7ff fe00 	bl	133bc <__hi0bits>
   137bc:	ebc0 1041 	rsb	r0, r0, r1, lsl #5
   137c0:	e7e1      	b.n	13786 <__d2b+0x60>

000137c2 <__sfputc_r>:
   137c2:	6893      	ldr	r3, [r2, #8]
   137c4:	3b01      	subs	r3, #1
   137c6:	2b00      	cmp	r3, #0
   137c8:	6093      	str	r3, [r2, #8]
   137ca:	b410      	push	{r4}
   137cc:	da08      	bge.n	137e0 <__sfputc_r+0x1e>
   137ce:	6994      	ldr	r4, [r2, #24]
   137d0:	42a3      	cmp	r3, r4
   137d2:	db01      	blt.n	137d8 <__sfputc_r+0x16>
   137d4:	290a      	cmp	r1, #10
   137d6:	d103      	bne.n	137e0 <__sfputc_r+0x1e>
   137d8:	f85d 4b04 	ldr.w	r4, [sp], #4
   137dc:	f7fe beb8 	b.w	12550 <__swbuf_r>
   137e0:	6813      	ldr	r3, [r2, #0]
   137e2:	1c58      	adds	r0, r3, #1
   137e4:	6010      	str	r0, [r2, #0]
   137e6:	4608      	mov	r0, r1
   137e8:	7019      	strb	r1, [r3, #0]
   137ea:	f85d 4b04 	ldr.w	r4, [sp], #4
   137ee:	4770      	bx	lr

000137f0 <__sfputs_r>:
   137f0:	b5f8      	push	{r3, r4, r5, r6, r7, lr}
   137f2:	4606      	mov	r6, r0
   137f4:	460f      	mov	r7, r1
   137f6:	4614      	mov	r4, r2
   137f8:	18d5      	adds	r5, r2, r3
   137fa:	42ac      	cmp	r4, r5
   137fc:	d101      	bne.n	13802 <__sfputs_r+0x12>
   137fe:	2000      	movs	r0, #0
   13800:	e007      	b.n	13812 <__sfputs_r+0x22>
   13802:	463a      	mov	r2, r7
   13804:	f814 1b01 	ldrb.w	r1, [r4], #1
   13808:	4630      	mov	r0, r6
   1380a:	f7ff ffda 	bl	137c2 <__sfputc_r>
   1380e:	1c43      	adds	r3, r0, #1
   13810:	d1f3      	bne.n	137fa <__sfputs_r+0xa>
   13812:	bdf8      	pop	{r3, r4, r5, r6, r7, pc}

00013814 <__swhatbuf_r>:
   13814:	b570      	push	{r4, r5, r6, lr}
   13816:	460e      	mov	r6, r1
   13818:	f9b1 100e 	ldrsh.w	r1, [r1, #14]
   1381c:	b096      	sub	sp, #88	; 0x58
   1381e:	4614      	mov	r4, r2
   13820:	2900      	cmp	r1, #0
   13822:	461d      	mov	r5, r3
   13824:	da07      	bge.n	13836 <__swhatbuf_r+0x22>
   13826:	2300      	movs	r3, #0
   13828:	602b      	str	r3, [r5, #0]
   1382a:	89b3      	ldrh	r3, [r6, #12]
   1382c:	061a      	lsls	r2, r3, #24
   1382e:	d410      	bmi.n	13852 <__swhatbuf_r+0x3e>
   13830:	f44f 6380 	mov.w	r3, #1024	; 0x400
   13834:	e00e      	b.n	13854 <__swhatbuf_r+0x40>
   13836:	466a      	mov	r2, sp
   13838:	f7ff f84a 	bl	128d0 <_fstat_r>
   1383c:	2800      	cmp	r0, #0
   1383e:	dbf2      	blt.n	13826 <__swhatbuf_r+0x12>
   13840:	9a01      	ldr	r2, [sp, #4]
   13842:	f402 4270 	and.w	r2, r2, #61440	; 0xf000
   13846:	f5a2 5300 	sub.w	r3, r2, #8192	; 0x2000
   1384a:	425a      	negs	r2, r3
   1384c:	415a      	adcs	r2, r3
   1384e:	602a      	str	r2, [r5, #0]
   13850:	e7ee      	b.n	13830 <__swhatbuf_r+0x1c>
   13852:	2340      	movs	r3, #64	; 0x40
   13854:	2000      	movs	r0, #0
   13856:	6023      	str	r3, [r4, #0]
   13858:	b016      	add	sp, #88	; 0x58
   1385a:	bd70      	pop	{r4, r5, r6, pc}

0001385c <__ascii_mbtowc>:
   1385c:	b082      	sub	sp, #8
   1385e:	b901      	cbnz	r1, 13862 <__ascii_mbtowc+0x6>
   13860:	a901      	add	r1, sp, #4
   13862:	b142      	cbz	r2, 13876 <__ascii_mbtowc+0x1a>
   13864:	b14b      	cbz	r3, 1387a <__ascii_mbtowc+0x1e>
   13866:	7813      	ldrb	r3, [r2, #0]
   13868:	600b      	str	r3, [r1, #0]
   1386a:	7812      	ldrb	r2, [r2, #0]
   1386c:	1c10      	adds	r0, r2, #0
   1386e:	bf18      	it	ne
   13870:	2001      	movne	r0, #1
   13872:	b002      	add	sp, #8
   13874:	4770      	bx	lr
   13876:	4610      	mov	r0, r2
   13878:	e7fb      	b.n	13872 <__ascii_mbtowc+0x16>
   1387a:	f06f 0001 	mvn.w	r0, #1
   1387e:	e7f8      	b.n	13872 <__ascii_mbtowc+0x16>

00013880 <__ascii_wctomb>:
   13880:	b149      	cbz	r1, 13896 <__ascii_wctomb+0x16>
   13882:	2aff      	cmp	r2, #255	; 0xff
   13884:	bf8d      	iteet	hi
   13886:	238a      	movhi	r3, #138	; 0x8a
   13888:	700a      	strbls	r2, [r1, #0]
   1388a:	2001      	movls	r0, #1
   1388c:	6003      	strhi	r3, [r0, #0]
   1388e:	bf88      	it	hi
   13890:	f04f 30ff 	movhi.w	r0, #4294967295
   13894:	4770      	bx	lr
   13896:	4608      	mov	r0, r1
   13898:	4770      	bx	lr

0001389a <error>:
   1389a:	b5f8      	push	{r3, r4, r5, r6, r7, lr}
   1389c:	4605      	mov	r5, r0
   1389e:	f7ff f9b7 	bl	12c10 <__errno>
   138a2:	2413      	movs	r4, #19
   138a4:	4606      	mov	r6, r0
   138a6:	2700      	movs	r7, #0
   138a8:	4620      	mov	r0, r4
   138aa:	4639      	mov	r1, r7
   138ac:	beab      	bkpt	0x00ab
   138ae:	4604      	mov	r4, r0
   138b0:	6034      	str	r4, [r6, #0]
   138b2:	4628      	mov	r0, r5
   138b4:	bdf8      	pop	{r3, r4, r5, r6, r7, pc}

000138b6 <checkerror>:
   138b6:	1c43      	adds	r3, r0, #1
   138b8:	d101      	bne.n	138be <checkerror+0x8>
   138ba:	f7ff bfee 	b.w	1389a <error>
   138be:	4770      	bx	lr

000138c0 <_swiread>:
   138c0:	b530      	push	{r4, r5, lr}
   138c2:	b085      	sub	sp, #20
   138c4:	e9cd 0101 	strd	r0, r1, [sp, #4]
   138c8:	9203      	str	r2, [sp, #12]
   138ca:	2406      	movs	r4, #6
   138cc:	ad01      	add	r5, sp, #4
   138ce:	4620      	mov	r0, r4
   138d0:	4629      	mov	r1, r5
   138d2:	beab      	bkpt	0x00ab
   138d4:	4604      	mov	r4, r0
   138d6:	4620      	mov	r0, r4
   138d8:	f7ff ffed 	bl	138b6 <checkerror>
   138dc:	b005      	add	sp, #20
   138de:	bd30      	pop	{r4, r5, pc}

000138e0 <_read>:
   138e0:	b570      	push	{r4, r5, r6, lr}
   138e2:	460e      	mov	r6, r1
   138e4:	4615      	mov	r5, r2
   138e6:	f7ff f889 	bl	129fc <findslot>
   138ea:	4604      	mov	r4, r0
   138ec:	b930      	cbnz	r0, 138fc <_read+0x1c>
   138ee:	f7ff f98f 	bl	12c10 <__errno>
   138f2:	2309      	movs	r3, #9
   138f4:	6003      	str	r3, [r0, #0]
   138f6:	f04f 30ff 	mov.w	r0, #4294967295
   138fa:	bd70      	pop	{r4, r5, r6, pc}
   138fc:	462a      	mov	r2, r5
   138fe:	4631      	mov	r1, r6
   13900:	6800      	ldr	r0, [r0, #0]
   13902:	f7ff ffdd 	bl	138c0 <_swiread>
   13906:	1c43      	adds	r3, r0, #1
   13908:	bf1f      	itttt	ne
   1390a:	6863      	ldrne	r3, [r4, #4]
   1390c:	1a28      	subne	r0, r5, r0
   1390e:	181b      	addne	r3, r3, r0
   13910:	6063      	strne	r3, [r4, #4]
   13912:	e7f2      	b.n	138fa <_read+0x1a>

00013914 <_swilseek>:
   13914:	b5f7      	push	{r0, r1, r2, r4, r5, r6, r7, lr}
   13916:	460c      	mov	r4, r1
   13918:	4616      	mov	r6, r2
   1391a:	f7ff f86f 	bl	129fc <findslot>
   1391e:	4605      	mov	r5, r0
   13920:	b940      	cbnz	r0, 13934 <_swilseek+0x20>
   13922:	f7ff f975 	bl	12c10 <__errno>
   13926:	2309      	movs	r3, #9
   13928:	6003      	str	r3, [r0, #0]
   1392a:	f04f 34ff 	mov.w	r4, #4294967295
   1392e:	4620      	mov	r0, r4
   13930:	b003      	add	sp, #12
   13932:	bdf0      	pop	{r4, r5, r6, r7, pc}
   13934:	2e02      	cmp	r6, #2
   13936:	d903      	bls.n	13940 <_swilseek+0x2c>
   13938:	f7ff f96a 	bl	12c10 <__errno>
   1393c:	2316      	movs	r3, #22
   1393e:	e7f3      	b.n	13928 <_swilseek+0x14>
   13940:	2e01      	cmp	r6, #1
   13942:	d112      	bne.n	1396a <_swilseek+0x56>
   13944:	6843      	ldr	r3, [r0, #4]
   13946:	18e4      	adds	r4, r4, r3
   13948:	d4f6      	bmi.n	13938 <_swilseek+0x24>
   1394a:	682b      	ldr	r3, [r5, #0]
   1394c:	260a      	movs	r6, #10
   1394e:	e9cd 3400 	strd	r3, r4, [sp]
   13952:	466f      	mov	r7, sp
   13954:	4630      	mov	r0, r6
   13956:	4639      	mov	r1, r7
   13958:	beab      	bkpt	0x00ab
   1395a:	4606      	mov	r6, r0
   1395c:	4630      	mov	r0, r6
   1395e:	f7ff ffaa 	bl	138b6 <checkerror>
   13962:	2800      	cmp	r0, #0
   13964:	dbe1      	blt.n	1392a <_swilseek+0x16>
   13966:	606c      	str	r4, [r5, #4]
   13968:	e7e1      	b.n	1392e <_swilseek+0x1a>
   1396a:	2e02      	cmp	r6, #2
   1396c:	d1ed      	bne.n	1394a <_swilseek+0x36>
   1396e:	6803      	ldr	r3, [r0, #0]
   13970:	260c      	movs	r6, #12
   13972:	9300      	str	r3, [sp, #0]
   13974:	466f      	mov	r7, sp
   13976:	4630      	mov	r0, r6
   13978:	4639      	mov	r1, r7
   1397a:	beab      	bkpt	0x00ab
   1397c:	4606      	mov	r6, r0
   1397e:	4630      	mov	r0, r6
   13980:	f7ff ff99 	bl	138b6 <checkerror>
   13984:	1c43      	adds	r3, r0, #1
   13986:	d0d0      	beq.n	1392a <_swilseek+0x16>
   13988:	4404      	add	r4, r0
   1398a:	e7de      	b.n	1394a <_swilseek+0x36>

0001398c <_lseek>:
   1398c:	f7ff bfc2 	b.w	13914 <_swilseek>

00013990 <_swiwrite>:
   13990:	b530      	push	{r4, r5, lr}
   13992:	b085      	sub	sp, #20
   13994:	e9cd 0101 	strd	r0, r1, [sp, #4]
   13998:	9203      	str	r2, [sp, #12]
   1399a:	2405      	movs	r4, #5
   1399c:	ad01      	add	r5, sp, #4
   1399e:	4620      	mov	r0, r4
   139a0:	4629      	mov	r1, r5
   139a2:	beab      	bkpt	0x00ab
   139a4:	4604      	mov	r4, r0
   139a6:	4620      	mov	r0, r4
   139a8:	f7ff ff85 	bl	138b6 <checkerror>
   139ac:	b005      	add	sp, #20
   139ae:	bd30      	pop	{r4, r5, pc}

000139b0 <_write>:
   139b0:	b570      	push	{r4, r5, r6, lr}
   139b2:	460e      	mov	r6, r1
   139b4:	4615      	mov	r5, r2
   139b6:	f7ff f821 	bl	129fc <findslot>
   139ba:	4604      	mov	r4, r0
   139bc:	b930      	cbnz	r0, 139cc <_write+0x1c>
   139be:	f7ff f927 	bl	12c10 <__errno>
   139c2:	2309      	movs	r3, #9
   139c4:	6003      	str	r3, [r0, #0]
   139c6:	f04f 30ff 	mov.w	r0, #4294967295
   139ca:	bd70      	pop	{r4, r5, r6, pc}
   139cc:	462a      	mov	r2, r5
   139ce:	4631      	mov	r1, r6
   139d0:	6800      	ldr	r0, [r0, #0]
   139d2:	f7ff ffdd 	bl	13990 <_swiwrite>
   139d6:	1e02      	subs	r2, r0, #0
   139d8:	dbf5      	blt.n	139c6 <_write+0x16>
   139da:	6863      	ldr	r3, [r4, #4]
   139dc:	1aa8      	subs	r0, r5, r2
   139de:	4403      	add	r3, r0
   139e0:	4295      	cmp	r5, r2
   139e2:	6063      	str	r3, [r4, #4]
   139e4:	d1f1      	bne.n	139ca <_write+0x1a>
   139e6:	e8bd 4070 	ldmia.w	sp!, {r4, r5, r6, lr}
   139ea:	2000      	movs	r0, #0
   139ec:	f7ff bf55 	b.w	1389a <error>

000139f0 <_swiclose>:
   139f0:	b537      	push	{r0, r1, r2, r4, r5, lr}
   139f2:	2402      	movs	r4, #2
   139f4:	9001      	str	r0, [sp, #4]
   139f6:	ad01      	add	r5, sp, #4
   139f8:	4620      	mov	r0, r4
   139fa:	4629      	mov	r1, r5
   139fc:	beab      	bkpt	0x00ab
   139fe:	4604      	mov	r4, r0
   13a00:	4620      	mov	r0, r4
   13a02:	f7ff ff58 	bl	138b6 <checkerror>
   13a06:	b003      	add	sp, #12
   13a08:	bd30      	pop	{r4, r5, pc}

00013a0a <_swistat>:
   13a0a:	b570      	push	{r4, r5, r6, lr}
   13a0c:	460c      	mov	r4, r1
   13a0e:	f7fe fff5 	bl	129fc <findslot>
   13a12:	4606      	mov	r6, r0
   13a14:	b930      	cbnz	r0, 13a24 <_swistat+0x1a>
   13a16:	f7ff f8fb 	bl	12c10 <__errno>
   13a1a:	2309      	movs	r3, #9
   13a1c:	6003      	str	r3, [r0, #0]
   13a1e:	f04f 30ff 	mov.w	r0, #4294967295
   13a22:	bd70      	pop	{r4, r5, r6, pc}
   13a24:	6863      	ldr	r3, [r4, #4]
   13a26:	250c      	movs	r5, #12
   13a28:	f443 5300 	orr.w	r3, r3, #8192	; 0x2000
   13a2c:	6063      	str	r3, [r4, #4]
   13a2e:	f44f 6380 	mov.w	r3, #1024	; 0x400
   13a32:	6463      	str	r3, [r4, #68]	; 0x44
   13a34:	4628      	mov	r0, r5
   13a36:	4631      	mov	r1, r6
   13a38:	beab      	bkpt	0x00ab
   13a3a:	4605      	mov	r5, r0
   13a3c:	4628      	mov	r0, r5
   13a3e:	f7ff ff3a 	bl	138b6 <checkerror>
   13a42:	1c43      	adds	r3, r0, #1
   13a44:	bf1c      	itt	ne
   13a46:	6120      	strne	r0, [r4, #16]
   13a48:	2000      	movne	r0, #0
   13a4a:	e7ea      	b.n	13a22 <_swistat+0x18>

00013a4c <_fstat>:
   13a4c:	b538      	push	{r3, r4, r5, lr}
   13a4e:	460c      	mov	r4, r1
   13a50:	4605      	mov	r5, r0
   13a52:	2100      	movs	r1, #0
   13a54:	4620      	mov	r0, r4
   13a56:	2258      	movs	r2, #88	; 0x58
   13a58:	f7ff f9ec 	bl	12e34 <memset>
   13a5c:	4621      	mov	r1, r4
   13a5e:	4628      	mov	r0, r5
   13a60:	e8bd 4038 	ldmia.w	sp!, {r3, r4, r5, lr}
   13a64:	f7ff bfd1 	b.w	13a0a <_swistat>

00013a68 <_isatty>:
   13a68:	b538      	push	{r3, r4, r5, lr}
   13a6a:	f7fe ffc7 	bl	129fc <findslot>
   13a6e:	2409      	movs	r4, #9
   13a70:	4605      	mov	r5, r0
   13a72:	b140      	cbz	r0, 13a86 <_isatty+0x1e>
   13a74:	4620      	mov	r0, r4
   13a76:	4629      	mov	r1, r5
   13a78:	beab      	bkpt	0x00ab
   13a7a:	4604      	mov	r4, r0
   13a7c:	4620      	mov	r0, r4
   13a7e:	e8bd 4038 	ldmia.w	sp!, {r3, r4, r5, lr}
   13a82:	f7ff bf18 	b.w	138b6 <checkerror>
   13a86:	f7ff f8c3 	bl	12c10 <__errno>
   13a8a:	6004      	str	r4, [r0, #0]
   13a8c:	f04f 30ff 	mov.w	r0, #4294967295
   13a90:	bd38      	pop	{r3, r4, r5, pc}
   13a92:	ffff ffff 			; <UNDEFINED> instruction: 0xffffffff
   13a96:	Address 0x00013a96 is out of bounds.


00013a98 <__DbgConsole_Printf_NSE_veneer>:
   13a98:	b401      	push	{r0}
   13a9a:	4802      	ldr	r0, [pc, #8]	; (13aa4 <__DbgConsole_Printf_NSE_veneer+0xc>)
   13a9c:	4684      	mov	ip, r0
   13a9e:	bc01      	pop	{r0}
   13aa0:	4760      	bx	ip
   13aa2:	bf00      	nop
   13aa4:	10052009 	.word	0x10052009

00013aa8 <__printdd_veneer>:
   13aa8:	b401      	push	{r0}
   13aaa:	4802      	ldr	r0, [pc, #8]	; (13ab4 <__printdd_veneer+0xc>)
   13aac:	4684      	mov	ip, r0
   13aae:	bc01      	pop	{r0}
   13ab0:	4760      	bx	ip
   13ab2:	bf00      	nop
   13ab4:	10052021 	.word	0x10052021

00013ab8 <__upload_construct_veneer>:
   13ab8:	b401      	push	{r0}
   13aba:	4802      	ldr	r0, [pc, #8]	; (13ac4 <__upload_construct_veneer+0xc>)
   13abc:	4684      	mov	ip, r0
   13abe:	bc01      	pop	{r0}
   13ac0:	4760      	bx	ip
   13ac2:	bf00      	nop
   13ac4:	10052011 	.word	0x10052011

00013ac8 <__app_GPS_recv_s_veneer>:
   13ac8:	b401      	push	{r0}
   13aca:	4802      	ldr	r0, [pc, #8]	; (13ad4 <__app_GPS_recv_s_veneer+0xc>)
   13acc:	4684      	mov	ip, r0
   13ace:	bc01      	pop	{r0}
   13ad0:	4760      	bx	ip
   13ad2:	bf00      	nop
   13ad4:	10052019 	.word	0x10052019

00013ad8 <__mprec_bigtens>:
   13ad8:	37e08000 4341c379 b5056e17 4693b8b5     ...7y.AC.n.....F
   13ae8:	e93ff9f5 4d384f03 f9301d32 5a827748     ..?..O8M2.0.Hw.Z
   13af8:	7f73bf3c 75154fdd                       <.s..O.u

00013b00 <__mprec_tens>:
   13b00:	00000000 3ff00000 00000000 40240000     .......?......$@
   13b10:	00000000 40590000 00000000 408f4000     ......Y@.....@.@
   13b20:	00000000 40c38800 00000000 40f86a00     .......@.....j.@
   13b30:	00000000 412e8480 00000000 416312d0     .......A......cA
   13b40:	00000000 4197d784 00000000 41cdcd65     .......A....e..A
   13b50:	20000000 4202a05f e8000000 42374876     ... _..B....vH7B
   13b60:	a2000000 426d1a94 e5400000 42a2309c     ......mB..@..0.B
   13b70:	1e900000 42d6bcc4 26340000 430c6bf5     .......B..4&.k.C
   13b80:	37e08000 4341c379 85d8a000 43763457     ...7y.AC....W4vC
   13b90:	674ec800 43abc16d 60913d00 43e158e4     ..Ngm..C.=.`.X.C
   13ba0:	78b58c40 4415af1d d6e2ef50 444b1ae4     @..x...DP.....KD
   13bb0:	064dd592 4480f0cf c7e14af6 44b52d02     ..M....D.J...-.D
   13bc0:	79d99db4 44ea7843 45535341 45205452     ...yCx.DASSERT E
   13bd0:	524f5252 25202220 3a222073 6c696620     RROR " %s ": fil
   13be0:	25222065 4c202273 20656e69 22642522     e "%s" Line "%d"
   13bf0:	6e756620 6f697463 616e206e 2220656d      function name "
   13c00:	20227325 ffff000a 4b4f0a0d 00000a0d     %s" ......OK....
   13c10:	52450a0d 0d524f52 0000000a 5b250a0d     ..ERROR.......%[
   13c20:	3a5d3a5e 3a5e5b25 0a0d5d0d 4b4f0a0d     ^:]:%[^:.]....OK
   13c30:	00000a0d 5b250a0d 3a5d3a5e 0a0d6425     ......%[^:]:%d..
   13c40:	4b4f0a0d 00000a0d 5b250a0d 3a5d3a5e     ..OK......%[^:]:
   13c50:	252c6425 0d0a0d64 0d4b4f0a 0000000a     %d,%d....OK.....
   13c60:	5b250a0d 3d5d3d5e 252c6425 5d3d5e5b     ..%[^=]=%d,%[^=]
   13c70:	2c64253d 3d5e5b25 64253d5d 0a0d0a0d     =%d,%[^=]=%d....
   13c80:	0a0d4b4f 00000000 64250a0d 0a0d0a0d     OK........%d....
   13c90:	0a0d4b4f 00000000 64250a0d 5e5b252c     OK........%d,%[^
   13ca0:	252c5d2c 64252c64 5e5b252c 252c5d2c     ,],%d,%d,%[^,],%
   13cb0:	0d0a0d64 0d4b4f0a 0000000a 4e2b0a0d     d....OK.......+N
   13cc0:	54534f53 64253a52 3030312c 0a0d312c     SOSTR:%d,100,1..
   13cd0:	00000000 4e2b0a0d 4d4e4f53 64253a49     ......+NSONMI:%d
   13ce0:	0d64252c 0000000a 5b250a0d 2b5d2b5e     ,%d.......%[^+]+
   13cf0:	534e4451 0d73253a 0000000a 4e2b5441     QDNS:%s.....AT+N
   13d00:	0a0d4252 00000000 30455441 00000a0d     RB......ATE0....
   13d10:	0d495441 0000000a 512b5441 4d44454c     ATI.....AT+QLEDM
   13d20:	3d45444f 000a0d31 4e2b5441 44494343     ODE=1...AT+NCCID
   13d30:	000a0d3f 432b5441 3d4e5546 000a0d31     ?...AT+CFUN=1...
   13d40:	432b5441 58524445 2c313d53 30222c35     AT+CEDRXS=1,5,"0
   13d50:	22303130 00000a0d 432b5441 534d5350     010"....AT+CPSMS
   13d60:	2c2c303d 3031302c 31313131 31302c31     =0,,,01011111,01
   13d70:	31313130 0a0d3131 00000000 4e2b5441     011111......AT+N
   13d80:	4d4e4f53 0d303d49 0000000a 432b5441     SONMI=0.....AT+C
   13d90:	54544147 0a0d313d 00000000 432b5441     GATT=1......AT+C
   13da0:	54544147 000a0d3f 432b5441 47455245     GATT?...AT+CEREG
   13db0:	000a0d3f 432b5441 0a0d5153 00000000     ?...AT+CSQ......
   13dc0:	512b5441 3d534e44 73252c30 00000a0d     AT+QDNS=0,%s....
   13dd0:	512b5441 534e4449 3d474643 2e343131     AT+QIDNSCFG=114.
   13de0:	2e343131 2e343131 2c343131 2e382e38     114.114.114,8.8.
   13df0:	0d382e38 0000000a 4e2b5441 52434f53     8.8.....AT+NSOCR
   13e00:	5247443d 312c4d41 30332c37 312c3530     =DGRAM,17,3005,1
   13e10:	5f46412c 54454e49 00000a0d 4e2b5441     ,AF_INET....AT+N
   13e20:	54534f53 2c64253d 332c7325 2c353030     SOST=%d,%s,3005,
   13e30:	252c6425 000a0d73 4e2b5441 46524f53     %d,%s...AT+NSORF
   13e40:	2c64253d 30303331 00000a0d 432b5441     =%d,1300....AT+C
   13e50:	3d4e5347 000a0d31 432b5441 3d4e5546     GSN=1...AT+CFUN=
   13e60:	000a0d30 432b5441 534d5350 2c2c313d     0...AT+CPSMS=1,,
   13e70:	3031302c 30303030 30302c31 30303030     ,01000001,000000
   13e80:	0a0d3130 00000000 0a0d6b6f 00000000     01......ok......
   13e90:	20746f6e 0a0d6b6f 00000000 4f534e2b     not ok......+NSO
   13ea0:	00494d4e 4e44512b 00000053 582a3025     NMI.+QDNS...%0*X
   13eb0:	ff007325 636c6557 20656d6f 6e206e69     %s..Welcome in n
   13ec0:	616d726f 6f77206c 21646c72 ff000a0d     ormal world!....
   13ed0:	736c6166 00000065 642f2e2e 65766972     false...../drive
   13ee0:	662f7372 665f6c73 6378656c 2e6d6d6f     rs/fsl_flexcomm.
   13ef0:	00000063 6c665f73 6f637865 72496d6d     c...s_flexcommIr
   13f00:	6e614871 72656c64 005d305b 6c665f73     qHandler[0].s_fl
   13f10:	6f637865 72496d6d 6e614871 72656c64     excommIrqHandler
   13f20:	005d315b 6c665f73 6f637865 72496d6d     [1].s_flexcommIr
   13f30:	6e614871 72656c64 005d325b 6c665f73     qHandler[2].s_fl
   13f40:	6f637865 72496d6d 6e614871 72656c64     excommIrqHandler
   13f50:	005d335b 6c665f73 6f637865 72496d6d     [3].s_flexcommIr
   13f60:	6e614871 72656c64 005d345b 6c665f73     qHandler[4].s_fl
   13f70:	6f637865 72496d6d 6e614871 72656c64     excommIrqHandler
   13f80:	005d355b 6c665f73 6f637865 72496d6d     [5].s_flexcommIr
   13f90:	6e614871 72656c64 005d365b 6c665f73     qHandler[6].s_fl
   13fa0:	6f637865 72496d6d 6e614871 72656c64     excommIrqHandler
   13fb0:	005d375b 6c665f73 6f637865 72496d6d     [7].s_flexcommIr
   13fc0:	6e614871 72656c64 005d385b              qHandler[8].

00013fcc <__func__.9050>:
   13fcc:	58454c46 4d4d4f43 72445f30 72657669     FLEXCOMM0_Driver
   13fdc:	48515249 6c646e61 ff007265              IRQHandler..

00013fe8 <__func__.9054>:
   13fe8:	58454c46 4d4d4f43 72445f31 72657669     FLEXCOMM1_Driver
   13ff8:	48515249 6c646e61 ff007265              IRQHandler..

00014004 <__func__.9058>:
   14004:	58454c46 4d4d4f43 72445f32 72657669     FLEXCOMM2_Driver
   14014:	48515249 6c646e61 ff007265              IRQHandler..

00014020 <__func__.9062>:
   14020:	58454c46 4d4d4f43 72445f33 72657669     FLEXCOMM3_Driver
   14030:	48515249 6c646e61 ff007265              IRQHandler..

0001403c <__func__.9066>:
   1403c:	58454c46 4d4d4f43 72445f34 72657669     FLEXCOMM4_Driver
   1404c:	48515249 6c646e61 ff007265              IRQHandler..

00014058 <__func__.9070>:
   14058:	58454c46 4d4d4f43 72445f35 72657669     FLEXCOMM5_Driver
   14068:	48515249 6c646e61 ff007265              IRQHandler..

00014074 <__func__.9074>:
   14074:	58454c46 4d4d4f43 72445f36 72657669     FLEXCOMM6_Driver
   14084:	48515249 6c646e61 ff007265              IRQHandler..

00014090 <__func__.9078>:
   14090:	58454c46 4d4d4f43 72445f37 72657669     FLEXCOMM7_Driver
   140a0:	48515249 6c646e61 ff007265              IRQHandler..

000140ac <__func__.9082>:
   140ac:	58454c46 4d4d4f43 72445f38 72657669     FLEXCOMM8_Driver
   140bc:	48515249 6c646e61 ff007265              IRQHandler..

000140c8 <_global_impure_ptr>:
   140c8:	20030004                                ... 

000140cc <__sf_fake_stderr>:
	...

000140ec <__sf_fake_stdin>:
	...

0001410c <__sf_fake_stdout>:
	...

0001412c <p05.7454>:
   1412c:	00000005 00000019 0000007d 00464e49     ........}...INF.
   1413c:	00666e69 004e414e 006e616e 31300030     inf.NAN.nan.0.01
   1414c:	35343332 39383736 44434241 30004645     23456789ABCDEF.0
   1415c:	34333231 38373635 63626139 00666564     123456789abcdef.
   1416c:	69666e49 7974696e 4e614e00 302d2300     Infinity.NaN.#-0
   1417c:	6800202b 65004c6c 46456766               + .hlL.efgEFG.

0001418a <_ctype_>:
   1418a:	20202000 20202020 28282020 20282828     .         ((((( 
   1419a:	20202020 20202020 20202020 20202020                     
   141aa:	10108820 10101010 10101010 10101010      ...............
   141ba:	04040410 04040404 10040404 10101010     ................
   141ca:	41411010 41414141 01010101 01010101     ..AAAAAA........
   141da:	01010101 01010101 01010101 10101010     ................
   141ea:	42421010 42424242 02020202 02020202     ..BBBBBB........
   141fa:	02020202 02020202 02020202 10101010     ................
   1420a:	00000020 00000000 00000000 00000000      ...............
	...
   1428a:	50004300 5849534f 3a002e00 ff007474     .C.POSIX...:tt..
   1429a:	                                         ..
